LIBRARY "CK2.dll"
EXPORTS
??0CK2dCurve@@QAE@ABV0@@Z
??0CK2dCurve@@QAE@XZ
??0CK2dCurvePoint@@QAE@XZ
??0CKAnimation@@QAE@ABV0@@Z
??0CKAnimation@@QAE@PAVCKContext@@PAD@Z
??0CKBaseManager@@QAE@ABV0@@Z
??0CKBaseManager@@QAE@PAVCKContext@@UCKGUID@@PAD@Z
??0CKBeObject@@QAE@ABV0@@Z
??0CKBeObject@@QAE@PAVCKContext@@PAD@Z
??0CKBeObject@@QAE@XZ
??0CKBitmapData@@QAE@ABV0@@Z
??0CKBitmapData@@QAE@XZ
??0CKDependenciesContext@@QAE@ABV0@@Z
??0CKDependenciesContext@@QAE@PAVCKContext@@@Z
??0CKFile@@QAE@ABV0@@Z
??0CKFile@@QAE@PAVCKContext@@@Z
??0CKGridManager@@QAE@ABV0@@Z
??0CKGridManager@@QAE@PAVCKContext@@UCKGUID@@PAD@Z
??0CKMaterial@@QAE@ABV0@@Z
??0CKMaterial@@QAE@PAVCKContext@@PAD@Z
??0CKMemoryPool@@QAE@PAVCKContext@@H@Z
??0CKObject@@QAE@ABV0@@Z
??0CKObject@@QAE@PAVCKContext@@PAD@Z
??0CKObject@@QAE@XZ
??0CKObjectAnimation@@QAE@ABV0@@Z
??0CKObjectAnimation@@QAE@PAVCKContext@@PAD@Z
??0CKObjectManager@@QAE@ABV0@@Z
??0CKObjectManager@@QAE@PAVCKContext@@@Z
??0CKPluginEntry@@QAE@ABU0@@Z
??0CKPluginEntry@@QAE@XZ
??0CKRenderContext@@QAE@ABV0@@Z
??0CKRenderContext@@QAE@PAVCKContext@@PAD@Z
??0CKRenderObject@@QAE@ABV0@@Z
??0CKRenderObject@@QAE@PAVCKContext@@PAD@Z
??0CKRenderObject@@QAE@XZ
??0CKSceneObject@@QAE@ABV0@@Z
??0CKSceneObject@@QAE@PAVCKContext@@PAD@Z
??0CKSceneObject@@QAE@XZ
??0CKSoundManager@@QAE@ABV0@@Z
??0CKSoundManager@@QAE@PAVCKContext@@PAD@Z
??0CKStructHelper@@QAE@PAVCKContext@@HPAK@Z
??0CKStructHelper@@QAE@PAVCKContext@@UCKGUID@@PAK@Z
??0CKStructHelper@@QAE@PAVCKParameter@@@Z
??1CK2dCurve@@QAE@XZ
??1CKAnimation@@UAE@XZ
??1CKBaseManager@@UAE@XZ
??1CKBeObject@@UAE@XZ
??1CKBitmapData@@QAE@XZ
??1CKDependenciesContext@@QAE@XZ
??1CKFile@@QAE@XZ
??1CKGridManager@@UAE@XZ
??1CKMaterial@@UAE@XZ
??1CKMemoryPool@@QAE@XZ
??1CKObject@@UAE@XZ
??1CKObjectAnimation@@UAE@XZ
??1CKObjectManager@@UAE@XZ
??1CKPluginEntry@@QAE@XZ
??1CKRenderContext@@UAE@XZ
??1CKRenderObject@@UAE@XZ
??1CKSceneObject@@UAE@XZ
??1CKSoundManager@@UAE@XZ
??4CK2dCurve@@QAEAAV0@ABV0@@Z
??4CK2dCurvePoint@@QAEAAV0@ABV0@@Z
??4CKAnimation@@QAEAAV0@ABV0@@Z
??4CKBaseManager@@QAEAAV0@ABV0@@Z
??4CKBeObject@@QAEAAV0@ABV0@@Z
??4CKBitmapData@@QAEAAV0@ABV0@@Z
??4CKDependenciesContext@@QAEAAV0@ABV0@@Z
??4CKFile@@QAEAAV0@ABV0@@Z
??4CKGridManager@@QAEAAV0@ABV0@@Z
??4CKMaterial@@QAEAAV0@ABV0@@Z
??4CKMemoryPool@@QAEAAV0@ABV0@@Z
??4CKObject@@QAEAAV0@ABV0@@Z
??4CKObjectAnimation@@QAEAAV0@ABV0@@Z
??4CKObjectManager@@QAEAAV0@ABV0@@Z
??4CKPluginEntry@@QAEAAU0@ABU0@@Z
??4CKRenderContext@@QAEAAV0@ABV0@@Z
??4CKRenderObject@@QAEAAV0@ABV0@@Z
??4CKSceneObject@@QAEAAV0@ABV0@@Z
??4CKSoundManager@@QAEAAV0@ABV0@@Z
??4CKStructHelper@@QAEAAV0@ABV0@@Z
??ACKStructHelper@@QAEPAVCKParameter@@H@Z
??_7CKAnimation@@6B@ DATA
??_7CKBaseManager@@6B@ DATA
??_7CKBeObject@@6B@ DATA
??_7CKGridManager@@6B@ DATA
??_7CKMaterial@@6B@ DATA
??_7CKObject@@6B@ DATA
??_7CKObjectAnimation@@6B@ DATA
??_7CKObjectManager@@6B@ DATA
??_7CKRenderContext@@6B@ DATA
??_7CKRenderObject@@6B@ DATA
??_7CKSceneObject@@6B@ DATA
??_7CKSoundManager@@6B@ DATA
??_FCKAnimation@@QAEXXZ
?Activate@CKBehavior@@QAEXHH@Z
?Activate@CKScene@@QAEXPAVCKSceneObject@@H@Z
?ActivateInput@CKBehavior@@QAEXHH@Z
?ActivateManager@CKContext@@QAEXPAVCKBaseManager@@H@Z
?ActivateOutput@CKBehavior@@QAEXHH@Z
?AddCategory@CKAttributeManager@@QAEHPADK@Z
?AddCategory@CKPathManager@@QAEHAAVXString@@@Z
?AddCategory@CKPluginManager@@QAEHPAD@Z
?AddChunk@CKStateChunk@@QAEXPAV1@@Z
?AddChunkAndDelete@CKStateChunk@@QAEXPAV1@@Z
?AddControlPoint@CK2dCurve@@QAEXABUVx2DVector@@@Z
?AddDependencies@CKDependenciesContext@@IAEHK@Z
?AddDestination@CKParameterOut@@QAEJPAVCKParameter@@H@Z
?AddEscapedSpace@CKPathManager@@QAEXAAVXString@@@Z
?AddIfNotHere@CKObjectArray@@QAEHK@Z
?AddIfNotHere@CKObjectArray@@QAEHPAVCKObject@@@Z
?AddIfNotHere@XObjectArray@@QAEHK@Z
?AddIfNotHere@XObjectArray@@QAEHPAVCKObject@@@Z
?AddIfNotHere@XSObjectArray@@QAEHK@Z
?AddIfNotHere@XSObjectArray@@QAEHPAVCKObject@@@Z
?AddIfNotHereSorted@CKObjectArray@@QAEHKP6AHPAVCKObject@@0@ZPAVCKContext@@@Z
?AddIfNotHereSorted@CKObjectArray@@QAEHPAVCKObject@@P6AH00@ZPAVCKContext@@@Z
?AddInput@CKBehavior@@QAEHPAD@Z
?AddInputParameter@CKBehavior@@QAEXPAVCKParameterIn@@@Z
?AddLastFrameMessage@CKBeObject@@IAEJPAVCKMessage@@@Z
?AddLocalParameter@CKBehavior@@QAEXPAVCKParameterLocal@@@Z
?AddMessageType@CKMessageManager@@QAEHPAD@Z
?AddObject@CKGroup@@QAEJPAVCKBeObject@@@Z
?AddObject@CKLevel@@QAEJPAVCKObject@@@Z
?AddObject@CKScene@@QAEXPAVCKSceneObject@@@Z
?AddObjectFront@CKGroup@@QAEJPAVCKBeObject@@@Z
?AddObjectToScene@CKScene@@QAEXPAVCKSceneObject@@H@Z
?AddObjects@CKDependenciesContext@@QAEXPAKH@Z
?AddOutput@CKBehavior@@QAEHPAD@Z
?AddOutputParameter@CKBehavior@@QAEXPAVCKParameterOut@@@Z
?AddParameter@CKMessage@@QAEJPAVCKParameter@@H@Z
?AddParameterOperation@CKBehavior@@QAEJPAVCKParameterOperation@@@Z
?AddPath@CKPathManager@@QAEHHAAVXString@@@Z
?AddPlace@CKLevel@@QAEJPAVCKPlace@@@Z
?AddProfileTime@CKContext@@QAEXW4CK_PROFILE_CATEGORY@@M@Z
?AddRenderContext@CKLevel@@QAEXPAVCKRenderContext@@H@Z
?AddRow@CKDataArray@@QAEXXZ
?AddScene@CKLevel@@QAEJPAVCKScene@@@Z
?AddSceneIn@CKSceneObject@@QAEXPAVCKScene@@@Z
?AddScript@CKBeObject@@QAEJPAVCKBehavior@@@Z
?AddSingleObjectActivity@CKObjectManager@@QAEXPAVCKSceneObject@@K@Z
?AddStateChunk@CKInterfaceObjectManager@@QAEXPAVCKStateChunk@@@Z
?AddSubBehavior@CKBehavior@@QAEJPAV1@@Z
?AddSubBehaviorLink@CKBehavior@@QAEJPAVCKBehaviorLink@@@Z
?AddToScene@CKBeObject@@UAEXPAVCKScene@@H@Z
?AddToScene@CKSceneObject@@UAEXPAVCKScene@@H@Z
?AddToSelfScenes@CKBeObject@@QAEXPAVCKSceneObject@@@Z
?Append@CKObjectArray@@QAEJPAV1@@Z
?ApplyEnvironmentSettings@CKScene@@QAEXPAVXObjectPointerArray@@@Z
?ApplyOwner@CKBeObject@@IAEXXZ
?ApplyPatchForOlderVersion@CKBeObject@@UAEXHPAUCKFileObject@@@Z
?BeObjectPrioritySort@CKBeObject@@KAHPBX0@Z
?BeginAddSequence@CKLevel@@QAEXH@Z
?BeginAddSequence@CKScene@@QAEXH@Z
?BeginRemoveSequence@CKLevel@@QAEXH@Z
?BeginRemoveSequence@CKScene@@QAEXH@Z
?CKBuildClassHierarchyTable@@YAXXZ
?CKClassGetNewIdentifier@@YAJXZ
?CKClassIDCheck@@YAHJ@Z
?CKClassIDCheckV@@YAHJ@Z
?CKClassIDToString@@YAPADJ@Z
?CKClassNeedNotificationFrom@@YAXJJ@Z
?CKClassRegister@@YAXJJP6AXXZP6APAVCKObject@@PAVCKContext@@@ZP6APADXZP6APADHH@ZP6AHH@Z@Z
?CKClassRegisterAssociatedParameter@@YAXJUCKGUID@@@Z
?CKClassRegisterDefaultDependencies@@YAXJKH@Z
?CKClassRegisterDefaultOptions@@YAXJK@Z
?CKCloseContext@@YAJPAVCKContext@@@Z
?CKComputeDataCRC@@YAKPADHK@Z
?CKConvertEndian16@@YAGG@Z
?CKConvertEndian32@@YAKK@Z
?CKConvertEndianArray16@@YAXPAXH@Z
?CKConvertEndianArray32@@YAXPAXH@Z
?CKCopyAllAttributes@@YAJPAVCKBeObject@@0@Z
?CKCopyBitmapProperties@@YAPAUCKBitmapProperties@@PAU1@@Z
?CKCopyDefaultClassDependencies@@YAXAAVCKDependencies@@W4CK_DEPENDENCIES_OPMODE@@@Z
?CKCreateContext@@YAJPAPAVCKContext@@PAXHK@Z
?CKDeletePointer@@YAXPAX@Z
?CKDestroyObject@@YAXPAVCKObject@@KPAVCKDependencies@@@Z
?CKDestroyObject@CKBaseManager@@QAEJKKPAVCKDependencies@@@Z
?CKDestroyObject@CKBaseManager@@QAEJPAVCKObject@@KPAVCKDependencies@@@Z
?CKDestroyObject@CKObject@@QAEJKKPAVCKDependencies@@@Z
?CKDestroyObject@CKObject@@QAEJPAV1@KPAVCKDependencies@@@Z
?CKDestroyObjects@CKBaseManager@@QAEJPAKHKPAVCKDependencies@@@Z
?CKDestroyObjects@CKObject@@QAEJPAKHKPAVCKDependencies@@@Z
?CKErrorToString@@YAPADJ@Z
?CKFillObjectsUnused@CKContext@@QAEABVXObjectPointerArray@@XZ
?CKGetClassCount@@YAHXZ
?CKGetClassDesc@@YAPAUCKClassDesc@@J@Z
?CKGetCommonParent@@YAJJJ@Z
?CKGetDefaultClassDependencies@@YAPAVCKDependencies@@W4CK_DEPENDENCIES_OPMODE@@@Z
?CKGetObject@@YAPAVCKObject@@PAVCKContext@@K@Z
?CKGetObject@CKBaseManager@@QAEPAVCKObject@@K@Z
?CKGetObject@CKObject@@QAEPAV1@K@Z
?CKGetObjectDeclarationFromGuid@@YAPAVCKObjectDeclaration@@UCKGUID@@@Z
?CKGetParentClassID@@YAJJ@Z
?CKGetParentClassID@@YAJPAVCKObject@@@Z
?CKGetPluginManager@@YAPAVCKPluginManager@@XZ
?CKGetPluginsPath@@YAPADXZ
?CKGetPrototypeDeclaration@@YAPAVCKObjectDeclaration@@H@Z
?CKGetPrototypeDeclarationCount@@YAHXZ
?CKGetPrototypeDeclarationEndIterator@@YA?AV?$XHashTableIt@PAVCKObjectDeclaration@@UCKGUID@@U?$XHashFun@UCKGUID@@@@U?$XEqual@UCKGUID@@@@@@XZ
?CKGetPrototypeDeclarationStartIterator@@YA?AV?$XHashTableIt@PAVCKObjectDeclaration@@UCKGUID@@U?$XHashFun@UCKGUID@@@@U?$XEqual@UCKGUID@@@@@@XZ
?CKGetPrototypeFromGuid@@YAPAVCKBehaviorPrototype@@UCKGUID@@@Z
?CKGetStartPath@@YAPADXZ
?CKGetVersion@@YAKXZ
?CKIsChildClassOf@@YAHJJ@Z
?CKIsChildClassOf@@YAHPAVCKObject@@J@Z
?CKLoadBitmap@@YAPAXPAD@Z
?CKMoveAllScripts@@YAJPAVCKBeObject@@0@Z
?CKMoveScript@@YAJPAVCKBeObject@@0PAVCKBehavior@@@Z
?CKPackData@@YAPADPADHAAHH@Z
?CKReadObjectState@@YAJPAVCKObject@@PAVCKStateChunk@@@Z
?CKRemapObjectParameterValue@@YAXPAVCKContext@@KKJH@Z
?CKRemovePrototypeDeclaration@@YAJPAVCKObjectDeclaration@@@Z
?CKSaveBitmap@@YAHPADAAUVxImageDescEx@@@Z
?CKSaveBitmap@@YAHPADPAX@Z
?CKSaveObjectState@@YAPAVCKStateChunk@@PAVCKObject@@K@Z
?CKShutdown@@YAJXZ
?CKStartUp@@YAJXZ
?CKStoreDeclaration@@YAXPAV?$XArray@PAVCKObjectDeclaration@@@@PAVCKObjectDeclaration@@@Z
?CKStrdup@@YAPADPAD@Z
?CKStringToClassID@@YAJPAD@Z
?CKStrlwr@@YAPADPAD@Z
?CKStrupr@@YAPADPAD@Z
?CKUnPackData@@YAPADHPADH@Z
?CallBehaviorCallbackFunction@CKBeObject@@QAEHKPAUCKGUID@@@Z
?CallCallbackFunction@CKBehavior@@QAEHK@Z
?CallSubBehaviorsCallbackFunction@CKBehavior@@QAEHKPAUCKGUID@@@Z
?CanBeHide@CKObject@@UAEHXZ
?CanIPassRendezVous@CKSynchroObject@@QAEHPAVCKBeObject@@@Z
?CenterAnimation@CKAnimation@@UAEXM@Z
?ChangeEnumDeclaration@CKParameterManager@@QAEJUCKGUID@@PAD@Z
?ChangeFlagsDeclaration@CKParameterManager@@QAEJUCKGUID@@PAD@Z
?ChangeLimitOptions@CKTimeManager@@QAEXW4CK_FRAMERATE_LIMITS@@0@Z
?ChangeObjectDynamic@CKContext@@QAEXPAVCKObject@@H@Z
?Check@CKObjectArray@@QAEHPAVCKContext@@@Z
?Check@XObjectArray@@QAEHPAVCKContext@@@Z
?Check@XObjectPointerArray@@QAEHXZ
?Check@XSObjectArray@@QAEHPAVCKContext@@@Z
?Check@XSObjectPointerArray@@QAEHXZ
?CheckIDArray@CKObjectManager@@QAEHPAKH@Z
?CheckIDArrayPredeleted@CKObjectManager@@QAEHPAKH@Z
?CheckPostDeletion@CKObject@@UAEXXZ
?CheckPreDeletion@CKObject@@UAEXXZ
?ChooseObject@CKContext@@QAEKPAX@Z
?ClassIDToGuid@CKParameterManager@@QAE?AUCKGUID@@J@Z
?ClassIDToType@CKParameterManager@@QAEHJ@Z
?Clear@CKDataArray@@QAEXH@Z
?Clear@CKDependenciesContext@@IAEXXZ
?Clear@CKGroup@@QAEXXZ
?Clear@CKObjectArray@@QAEXXZ
?Clear@CKStateChunk@@QAEXXZ
?ClearAll@CKContext@@QAEJXZ
?ClearAllObjects@CKObjectManager@@QAEJXZ
?ClearData@CKFile@@IAEXXZ
?Clone@CKStateChunk@@QAEXPAV1@@Z
?CloseChunk@CKStateChunk@@QAEXXZ
?ColumnTransform@CKDataArray@@QAEXHW4CK_BINARYOPERATOR@@K@Z
?ColumnsOperate@CKDataArray@@QAEXHW4CK_BINARYOPERATOR@@HH@Z
?ComputeCRC@CKStateChunk@@QAEKK@Z
?ComputeObjectList@CKLevel@@QAEABVXObjectPointerArray@@JH@Z
?ComputeObjectList@CKScene@@QAEABVXObjectPointerArray@@JH@Z
?ComputeObjectList@CKScene@@QAEJPAVCKObjectArray@@JH@Z
?ContainClassID@CKDependenciesContext@@QAEHJ@Z
?ConvertFromBuffer@CKStateChunk@@QAEHPAX@Z
?ConvertFromObjects@XObjectArray@@QAEXABVXObjectPointerArray@@@Z
?ConvertFromObjects@XSObjectArray@@QAEXABV?$XSArray@PAVCKObject@@@@@Z
?ConvertToBuffer@CKStateChunk@@QAEHPAX@Z
?Copy@CKBeObject@@UAEJAAVCKObject@@AAVCKDependenciesContext@@@Z
?Copy@CKDependenciesContext@@QAEXPAD@Z
?Copy@CKObject@@UAEJAAV1@AAVCKDependenciesContext@@@Z
?CopyObject@CKContext@@QAEPAVCKObject@@PAV2@PAVCKDependencies@@PADW4CK_OBJECTCREATION_OPTIONS@@@Z
?CopyObjects@CKContext@@QAEABVXObjectArray@@ABV2@PAVCKDependencies@@W4CK_OBJECTCREATION_OPTIONS@@PAD@Z
?Create@CKWaveSound@@QAEJHPAD@Z
?Create@CKWaveSound@@QAEJW4CK_WAVESOUND_TYPE@@PAUCKWaveFormat@@H@Z
?CreateCKBehaviorPrototype@@YAPAVCKBehaviorPrototype@@PAD@Z
?CreateCKBehaviorPrototypeRunTime@@YAPAVCKBehaviorPrototype@@PAD@Z
?CreateCKFile@CKContext@@QAEPAVCKFile@@XZ
?CreateCKObjectArray@@YAPAVCKObjectArray@@XZ
?CreateCKObjectDeclaration@@YAPAVCKObjectDeclaration@@PAD@Z
?CreateCKParameterIn@CKContext@@QAEPAVCKParameterIn@@PAD0H@Z
?CreateCKParameterIn@CKContext@@QAEPAVCKParameterIn@@PADHH@Z
?CreateCKParameterIn@CKContext@@QAEPAVCKParameterIn@@PADUCKGUID@@H@Z
?CreateCKParameterLocal@CKContext@@QAEPAVCKParameterLocal@@PAD0H@Z
?CreateCKParameterLocal@CKContext@@QAEPAVCKParameterLocal@@PADHH@Z
?CreateCKParameterLocal@CKContext@@QAEPAVCKParameterLocal@@PADUCKGUID@@H@Z
?CreateCKParameterOperation@CKContext@@QAEPAVCKParameterOperation@@PADUCKGUID@@111@Z
?CreateCKParameterOut@CKContext@@QAEPAVCKParameterOut@@PAD0H@Z
?CreateCKParameterOut@CKContext@@QAEPAVCKParameterOut@@PADHH@Z
?CreateCKParameterOut@CKContext@@QAEPAVCKParameterOut@@PADUCKGUID@@H@Z
?CreateCKStateChunk@@YAPAVCKStateChunk@@JPAVCKFile@@@Z
?CreateCKStateChunk@@YAPAVCKStateChunk@@PAV1@@Z
?CreateGroup@CKDataArray@@QAEXHW4CK_COMPOPERATOR@@KHPAVCKGroup@@H@Z
?CreateImage@CKBitmapData@@QAEHHHHH@Z
?CreateInput@CKBehavior@@QAEPAVCKBehaviorIO@@PAD@Z
?CreateInputParameter@CKBehavior@@QAEPAVCKParameterIn@@PADH@Z
?CreateInputParameter@CKBehavior@@QAEPAVCKParameterIn@@PADUCKGUID@@@Z
?CreateInstance@CKBeObject@@SAPAV1@PAVCKContext@@@Z
?CreateInstance@CKObject@@SAPAV1@PAVCKContext@@@Z
?CreateInstance@CKSceneObject@@SAPAV1@PAVCKContext@@@Z
?CreateLevelScene@CKLevel@@QAEXXZ
?CreateLocalParameter@CKBehavior@@QAEPAVCKParameterLocal@@PADH@Z
?CreateLocalParameter@CKBehavior@@QAEPAVCKParameterLocal@@PADUCKGUID@@@Z
?CreateMergedAnimation@CKAnimation@@UAEPAV1@PAV1@H@Z
?CreateMinion@CKSoundManager@@QAEPAUSoundMinion@@PAXM@Z
?CreateMovieInfo@CKBitmapData@@QAEPAVCKMovieInfo@@VXString@@PAPAUCKMovieProperties@@@Z
?CreateObject@CKContext@@QAEPAVCKObject@@JPADW4CK_OBJECTCREATION_OPTIONS@@PAW4CK_LOADMODE@@@Z
?CreateOutput@CKBehavior@@QAEPAVCKBehaviorIO@@PAD@Z
?CreateOutputParameter@CKBehavior@@QAEPAVCKParameterOut@@PADH@Z
?CreateOutputParameter@CKBehavior@@QAEPAVCKParameterOut@@PADUCKGUID@@@Z
?CreateTransition@CKAnimation@@UAEMPAV1@0KMM@Z
?DataChanged@CKParameterOut@@QAEXXZ
?DeActivate@CKScene@@QAEXPAVCKSceneObject@@@Z
?DeclareLocalParameter@CKBehaviorPrototype@@QAEHPADUCKGUID@@0@Z
?DeclareLocalParameter@CKBehaviorPrototype@@QAEHPADUCKGUID@@PAXH@Z
?DeclareSetting@CKBehaviorPrototype@@QAEHPADUCKGUID@@0@Z
?DeclareSetting@CKBehaviorPrototype@@QAEHPADUCKGUID@@PAXH@Z
?DeleteAllDynamicObjects@CKObjectManager@@QAEXXZ
?DeleteAllObjects@CKObjectManager@@QAEJXZ
?DeleteCKFile@CKContext@@QAEJPAVCKFile@@@Z
?DeleteCKObjectArray@@YAXPAVCKObjectArray@@@Z
?DeleteCKStateChunk@@YAXPAVCKStateChunk@@@Z
?DeleteControlPoint@CK2dCurve@@QAEXPAVCK2dCurvePoint@@@Z
?DeleteInput@CKBehavior@@QAEJH@Z
?DeleteObjects@CKObjectManager@@QAEJPAKHJK@Z
?DeleteOutput@CKBehavior@@QAEJH@Z
?DestroyAllDynamicObjects@CKContext@@QAEXXZ
?DestroyObject@CKContext@@QAEJKKPAVCKDependencies@@@Z
?DestroyObject@CKContext@@QAEJPAVCKObject@@KPAVCKDependencies@@@Z
?DestroyObjects@CKContext@@QAEJPAKHKPAVCKDependencies@@@Z
?DoOperation@CKParameterOperation@@QAEJXZ
?Dump@CK2dCurve@@QAEPAVCKStateChunk@@XZ
?DumpToChunk@CKBitmapData@@QAEHPAVCKStateChunk@@PAVCKContext@@PAVCKFile@@QAK@Z
?Enable@CKParameter@@QAEXH@Z
?EnableInputParameter@CKBehavior@@QAEXHH@Z
?EnableOutputParameter@CKBehavior@@QAEXHH@Z
?EnableProfiling@CKContext@@QAEXH@Z
?EndLoadSession@CKObjectManager@@QAEXXZ
?EndOfList@CKObjectArray@@QAEHXZ
?EndSave@CKFile@@QAEJXZ
?EnterCriticalSection@CKCriticalSectionObject@@QAEHPAVCKBeObject@@@Z
?EnterState@CKStateObject@@QAEXXZ
?EnvironmentSettings@CKScene@@QAEHXZ
?Execute@CKBehavior@@QAEHM@Z
?Execute@CKBehaviorManager@@QAEJM@Z
?ExecuteBehaviors@CKBeObject@@QAEXM@Z
?ExecuteManagersOnPostRender@CKContext@@QAEXPAVCKRenderContext@@@Z
?ExecuteManagersOnPostSpriteRender@CKContext@@QAEXPAVCKRenderContext@@@Z
?ExecuteManagersOnPreRender@CKContext@@QAEXPAVCKRenderContext@@@Z
?ExportInputParameter@CKBehavior@@QAEJPAVCKParameterIn@@@Z
?ExportOutputParameter@CKBehavior@@QAEJPAVCKParameterOut@@@Z
?FillDependencies@CKDependenciesContext@@QAE?AVXObjectArray@@XZ
?FillListByAttributes@CKAttributeManager@@QAEABVXObjectPointerArray@@PAHH@Z
?FillListByGlobalAttributes@CKAttributeManager@@QAEABVXObjectPointerArray@@PAHH@Z
?FillRemappedDependencies@CKDependenciesContext@@QAE?AVXObjectArray@@XZ
?FillWithBlanks@CKWaveSound@@QAEXH@Z
?FindComponent@CKPluginManager@@QAEPAUCKPluginEntry@@UCKGUID@@H@Z
?FindObject@XObjectArray@@QBEHPAVCKObject@@@Z
?FindObject@XSObjectArray@@QBEHPAVCKObject@@@Z
?FindRow@CKDataArray@@QAEPAV?$XSArray@K@@HW4CK_COMPOPERATOR@@KHH@Z
?FindRowIndex@CKDataArray@@QAEHHW4CK_COMPOPERATOR@@KHH@Z
?FinishLoading@CKFile@@IAEXPAVCKObjectArray@@K@Z
?FinishPrepareDependencies@CKDependenciesContext@@QAEJPAVCKObject@@J@Z
?FinishRegisterObject@CKObjectManager@@QAEXPAVCKObject@@@Z
?GetAlphaMask@CKBitmapData@@QAEKXZ
?GetAmbientLight@CKScene@@QAEKXZ
?GetAppData@CKObject@@QAEPAXXZ
?GetApplyToClassID@CKBehaviorPrototype@@QAEJXZ
?GetAttachedEntity@CKWaveSound@@QAEPAVCK3dEntity@@XZ
?GetAttributeCategory@CKAttributeManager@@QAEPADH@Z
?GetAttributeCategoryIndex@CKAttributeManager@@QAEHH@Z
?GetAttributeCompatibleClassId@CKAttributeManager@@QAEJH@Z
?GetAttributeCount@CKAttributeManager@@QAEHXZ
?GetAttributeCount@CKBeObject@@QAEHXZ
?GetAttributeDefaultValue@CKAttributeManager@@QAEPADH@Z
?GetAttributeFlags@CKAttributeManager@@QAE?AW4CK_ATTRIBUT_FLAGS@@H@Z
?GetAttributeList@CKBeObject@@QAEXPAUCKAttributeVal@@@Z
?GetAttributeListPtr@CKAttributeManager@@QAEABVXObjectPointerArray@@H@Z
?GetAttributeManager@CKContext@@QAEPAVCKAttributeManager@@XZ
?GetAttributeNameByType@CKAttributeManager@@QAEPADH@Z
?GetAttributeParameter@CKBeObject@@QAEPAVCKParameterOut@@H@Z
?GetAttributeParameterByIndex@CKBeObject@@QAEPAVCKParameterOut@@H@Z
?GetAttributeParameterGUID@CKAttributeManager@@QAE?AUCKGUID@@H@Z
?GetAttributeParameterType@CKAttributeManager@@QAEHH@Z
?GetAttributeType@CKBeObject@@QAEHH@Z
?GetAttributeTypeByName@CKAttributeManager@@QAEHPAD@Z
?GetAuthorGuid@CKObjectDeclaration@@QAE?AUCKGUID@@XZ
?GetAuthorName@CKObjectDeclaration@@QAEPADXZ
?GetAvailableOperationsDesc@CKParameterManager@@QAEHABUCKGUID@@PAVCKParameterOut@@PAVCKParameterIn@@2PAUCKOperationDesc@@@Z
?GetBackgroundColor@CKScene@@QAEKXZ
?GetBackgroundTexture@CKScene@@QAEPAVCKTexture@@XZ
?GetBehaviorCallbackFct@CKBehaviorPrototype@@QAEP6AJABUCKBehaviorContext@@@ZXZ
?GetBehaviorFlags@CKBehaviorPrototype@@QAE?AW4CK_BEHAVIOR_FLAGS@@XZ
?GetBehaviorManager@CKContext@@QAEPAVCKBehaviorManager@@XZ
?GetBehaviorMaxIteration@CKBehaviorManager@@QAEHXZ
?GetBias@CK2dCurvePoint@@QBEMXZ
?GetBitmapReader@CKPluginManager@@QAEPAVCKBitmapReader@@AAUCKFileExtension@@PAUCKGUID@@@Z
?GetBitsPerPixel@CKBitmapData@@QAEHXZ
?GetBlueMask@CKBitmapData@@QAEKXZ
?GetBytesPerLine@CKBitmapData@@QAEHXZ
?GetCKContext@@YAPAVCKContext@@H@Z
?GetCKContext@CKObject@@QAEPAVCKContext@@XZ
?GetCKObject@CKObject@@QAEPAV1@K@Z
?GetCategoriesCount@CKAttributeManager@@QAEHXZ
?GetCategory@CKObjectDeclaration@@QAEPADXZ
?GetCategoryByName@CKAttributeManager@@QAEHPAD@Z
?GetCategoryCount@CKPathManager@@QAEHXZ
?GetCategoryCount@CKPluginManager@@QAEHXZ
?GetCategoryFlags@CKAttributeManager@@QAEKH@Z
?GetCategoryFlags@CKAttributeManager@@QAEKPAD@Z
?GetCategoryIndex@CKPathManager@@QAEHAAVXString@@@Z
?GetCategoryIndex@CKPluginManager@@QAEHPAD@Z
?GetCategoryName@CKAttributeManager@@QAEPADH@Z
?GetCategoryName@CKPathManager@@QAEJHAAVXString@@@Z
?GetCategoryName@CKPluginManager@@QAEPADH@Z
?GetChunk@CKInterfaceObjectManager@@QAEPAVCKStateChunk@@H@Z
?GetChunkClassID@CKStateChunk@@QAEJXZ
?GetChunkCount@CKInterfaceObjectManager@@QAEHXZ
?GetChunkVersion@CKStateChunk@@QAEFXZ
?GetClassDependencies@CKDependenciesContext@@QAEKH@Z
?GetClassID@CKBeObject@@UAEJXZ
?GetClassID@CKObject@@UAEJXZ
?GetClassID@CKSceneObject@@UAEJXZ
?GetClassNameA@CKBeObject@@SAPADXZ
?GetClassNameA@CKObject@@SAPADXZ
?GetClassNameA@CKSceneObject@@SAPADXZ
?GetColumnCount@CKDataArray@@QAEHXZ
?GetColumnName@CKDataArray@@QAEPADH@Z
?GetColumnParameterGuid@CKDataArray@@QAE?AUCKGUID@@H@Z
?GetColumnType@CKDataArray@@QAE?AW4CK_ARRAYTYPE@@H@Z
?GetCommonClassID@CKGroup@@QAEJXZ
?GetCompatibleClassID@CKBehavior@@QAEJXZ
?GetCompatibleClassId@CKObjectDeclaration@@QAEJXZ
?GetCompressionLevel@CKContext@@QAEHXZ
?GetCone@CKWaveSound@@QAEXPAM00@Z
?GetContinuity@CK2dCurvePoint@@QBEMXZ
?GetControlPoint@CK2dCurve@@QAEPAVCK2dCurvePoint@@H@Z
?GetControlPointCount@CK2dCurve@@QAEHXZ
?GetCount@CKDataArray@@QAEHHW4CK_COMPOPERATOR@@KH@Z
?GetCount@CKObjectArray@@QAEHXZ
?GetCreationFunction@CKObjectDeclaration@@QAEP6AJPAPAVCKBehaviorPrototype@@@ZXZ
?GetCurrentFileLoadOption@@YAKXZ
?GetCurrentFileVersion@@YAKXZ
?GetCurrentLevel@CKContext@@QAEPAVCKLevel@@XZ
?GetCurrentPos@CKMidiSound@@QAEKXZ
?GetCurrentPos@CKObjectArray@@QAEHXZ
?GetCurrentPos@CKStateChunk@@QAEHXZ
?GetCurrentScene@CKContext@@QAEPAVCKScene@@XZ
?GetCurrentScene@CKLevel@@QAEPAVCKScene@@XZ
?GetCurrentSlot@CKBitmapData@@QAEHXZ
?GetCurve@CK2dCurvePoint@@QBEPAVCK2dCurve@@XZ
?GetData@CKObjectArray@@QAEPAVCKObject@@PAVCKContext@@@Z
?GetDataId@CKObjectArray@@QAEKXZ
?GetDataSize@CKParameter@@QAEHXZ
?GetDataSize@CKStateChunk@@QAEHXZ
?GetDataVersion@CKStateChunk@@QAEFXZ
?GetDebugContext@CKContext@@QAEPAVCKDebugContext@@XZ
?GetDependencies@CKBeObject@@SAPADHH@Z
?GetDependencies@CKObject@@SAPADHH@Z
?GetDependencies@CKSceneObject@@SAPADHH@Z
?GetDependenciesCount@CKBeObject@@SAHH@Z
?GetDependenciesCount@CKObject@@SAHH@Z
?GetDependenciesCount@CKSceneObject@@SAHH@Z
?GetDependenciesMap@CKDependenciesContext@@QBEABV?$XHashTable@KKU?$XHashFun@K@@U?$XEqual@K@@@@XZ
?GetDescription@CKObjectDeclaration@@QAEPADXZ
?GetDestination@CKParameterOut@@QAEPAVCKParameter@@H@Z
?GetDestinationCount@CKParameterOut@@QAEHXZ
?GetDirection@CKWaveSound@@QAEXAAUVxVector@@@Z
?GetDynamicID@CKObjectManager@@QAEKH@Z
?GetDynamicIDCount@CKObjectManager@@QAEHXZ
?GetElement@CKDataArray@@QAEPAKHH@Z
?GetElementObject@CKDataArray@@QAEPAVCKObject@@HH@Z
?GetElementStringValue@CKDataArray@@QAEHHHPAD@Z
?GetElementValue@CKDataArray@@QAEHHHPAX@Z
?GetEnumDescByType@CKParameterManager@@QAEPAUCKEnumStruct@@H@Z
?GetFileInfo@CKContext@@QAEJHPAXPAUCKFileInfo@@@Z
?GetFileInfo@CKContext@@QAEJPADPAUCKFileInfo@@@Z
?GetFileStreaming@CKWaveSound@@QAEHXZ
?GetFileWriteMode@CKContext@@QAE?AW4CK_FILE_WRITEMODE@@XZ
?GetFlags@CKBehavior@@QAE?AW4CK_BEHAVIOR_FLAGS@@XZ
?GetFlags@CKBehaviorLink@@QAEKXZ
?GetFlags@CKBehaviorPrototype@@QAE?AW4CK_BEHAVIORPROTOTYPE_FLAGS@@XZ
?GetFlagsDescByType@CKParameterManager@@QAEPAUCKFlagsStruct@@H@Z
?GetFogColor@CKScene@@QAEKXZ
?GetFogDensity@CKScene@@QAEMXZ
?GetFogEnd@CKScene@@QAEMXZ
?GetFogMode@CKScene@@QAE?AW4VXFOG_MODE@@XZ
?GetFogStart@CKScene@@QAEMXZ
?GetFunction@CKBehavior@@QAEP6AHABUCKBehaviorContext@@@ZXZ
?GetFunction@CKBehaviorPrototype@@QAEP6AHABUCKBehaviorContext@@@ZXZ
?GetFunctionPriority@CKBaseManager@@UAEHW4CKMANAGER_FUNCTIONS@@@Z
?GetGUID@CKParameter@@QAE?AUCKGUID@@XZ
?GetGain@CKWaveSound@@QAEMXZ
?GetGlobalAttributeListPtr@CKAttributeManager@@QAEABVXObjectPointerArray@@H@Z
?GetGlobalImagesSaveFormat@CKContext@@QAEPAUCKBitmapProperties@@XZ
?GetGlobalImagesSaveOptions@CKContext@@QAE?AW4CK_TEXTURE_SAVEOPTIONS@@XZ
?GetGlobalSoundsSaveOptions@CKContext@@QAE?AW4CK_SOUND_SAVEOPTIONS@@XZ
?GetGreenMask@CKBitmapData@@QAEKXZ
?GetGroupGlobalIndex@CKObjectManager@@QAEKXZ
?GetGuid@CKBaseManager@@QAE?AUCKGUID@@XZ
?GetGuid@CKBehaviorPrototype@@QAE?AUCKGUID@@XZ
?GetGuid@CKInterfaceObjectManager@@QAE?AUCKGUID@@XZ
?GetGuid@CKObjectDeclaration@@QAE?AUCKGUID@@XZ
?GetHeight@CKBitmapData@@QAEHXZ
?GetHighest@CKDataArray@@QAEHHAAH@Z
?GetID@CKObject@@QAEKXZ
?GetImageDesc@CKBitmapData@@QAEHAAUVxImageDescEx@@@Z
?GetInIOIndex@CKBehaviorPrototype@@QAEHPAD@Z
?GetInIOList@CKBehaviorPrototype@@QAEPAPAUCKBEHAVIORIO_DESC@@XZ
?GetInParamIndex@CKBehaviorPrototype@@QAEHPAD@Z
?GetInParameterCount@CKBehaviorPrototype@@QAEHXZ
?GetInParameterList@CKBehaviorPrototype@@QAEPAPAUCKPARAMETER_DESC@@XZ
?GetInTangent@CK2dCurvePoint@@QAEAAUVx2DVector@@XZ
?GetInactiveManager@CKContext@@QAEPAVCKBaseManager@@H@Z
?GetInactiveManagerCount@CKContext@@QAEHXZ
?GetInput@CKBehavior@@QAEPAVCKBehaviorIO@@H@Z
?GetInputCount@CKBehavior@@QAEHXZ
?GetInputCount@CKBehaviorPrototype@@QAEHXZ
?GetInputParameter@CKBehavior@@QAEPAVCKParameterIn@@H@Z
?GetInputParameterCount@CKBehavior@@QAEHXZ
?GetInputParameterObject@CKBehavior@@QAEPAVCKObject@@H@Z
?GetInputParameterPosition@CKBehavior@@QAEHPAVCKParameterIn@@@Z
?GetInputParameterReadDataPtr@CKBehavior@@QAEPAXH@Z
?GetInputParameterValue@CKBehavior@@QAEJHPAX@Z
?GetInputPosition@CKBehavior@@QAEHPAVCKBehaviorIO@@@Z
?GetInterfaceChunk@CKBehavior@@QAEPAVCKStateChunk@@XZ
?GetKeyColumn@CKDataArray@@QAEHXZ
?GetLastCmoLoaded@CKContext@@QAEPADXZ
?GetLastExecutionTime@CKBeObject@@QAEMXZ
?GetLastExecutionTime@CKBehavior@@QAEMXZ
?GetLastFileLoaded@CKContext@@QAEPADXZ
?GetLastFrameMessage@CKBeObject@@QAEPAVCKMessage@@H@Z
?GetLastFrameMessageCount@CKBeObject@@QAEHXZ
?GetLastUserProfileTime@CKContext@@QAEMK@Z
?GetLength@CK2dCurve@@QAEMXZ
?GetLength@CK2dCurvePoint@@QBEMXZ
?GetLevel@CKScene@@QAEPAVCKLevel@@XZ
?GetLevelScene@CKLevel@@QAEPAVCKScene@@XZ
?GetListener@CKSoundManager@@UAEPAVCK3dEntity@@XZ
?GetLocalParamIndex@CKBehaviorPrototype@@QAEHPAD@Z
?GetLocalParameter@CKBehavior@@QAEPAVCKParameterLocal@@H@Z
?GetLocalParameterCount@CKBehavior@@QAEHXZ
?GetLocalParameterCount@CKBehaviorPrototype@@QAEHXZ
?GetLocalParameterList@CKBehaviorPrototype@@QAEPAPAUCKPARAMETER_DESC@@XZ
?GetLocalParameterObject@CKBehavior@@QAEPAVCKObject@@H@Z
?GetLocalParameterPosition@CKBehavior@@QAEHPAVCKParameterLocal@@@Z
?GetLocalParameterReadDataPtr@CKBehavior@@QAEPAXH@Z
?GetLocalParameterValue@CKBehavior@@QAEJHPAX@Z
?GetLocalParameterWriteDataPtr@CKBehavior@@QAEPAXH@Z
?GetLoopMode@CKWaveSound@@QAEHXZ
?GetLowest@CKDataArray@@QAEHHAAH@Z
?GetMainWindow@CKContext@@QAEPAXXZ
?GetManager@CKContext@@QAEPAVCKBaseManager@@H@Z
?GetManagerByGuid@CKContext@@QAEPAVCKBaseManager@@UCKGUID@@@Z
?GetManagerByName@CKContext@@QAEPAVCKBaseManager@@PAD@Z
?GetManagerCount@CKContext@@QAEHXZ
?GetManagers@CKContext@@QAE?AV?$XHashTableIt@PAVCKBaseManager@@UCKGUID@@U?$XHashFun@UCKGUID@@@@U?$XEqual@UCKGUID@@@@@@XZ
?GetMemberCount@CKStructHelper@@QAEHXZ
?GetMemberGUID@CKStructHelper@@QAE?AUCKGUID@@H@Z
?GetMemberName@CKStructHelper@@QAEPADH@Z
?GetMemoryOccupation@CKBeObject@@UAEHXZ
?GetMemoryOccupation@CKObject@@UAEHXZ
?GetMemoryOccupation@CKSceneObject@@UAEHXZ
?GetMergeFactor@CKAnimation@@UAEMXZ
?GetMessageManager@CKContext@@QAEPAVCKMessageManager@@XZ
?GetMessageTypeCount@CKMessageManager@@QAEHXZ
?GetMessageTypeName@CKMessageManager@@QAEPADH@Z
?GetMinMaxDistance@CKWaveSound@@QAEXPAM0PAK@Z
?GetMissingPlugins@CKFile@@QAEPAV?$XClassArray@VCKFilePluginDependencies@@@@XZ
?GetModelReader@CKPluginManager@@QAEPAVCKModelReader@@AAUCKFileExtension@@PAUCKGUID@@@Z
?GetMovieFileName@CKBitmapData@@QAEPADXZ
?GetMovieReader@CKBitmapData@@QAEPAVCKMovieReader@@XZ
?GetMovieReader@CKPluginManager@@QAEPAVCKMovieReader@@AAUCKFileExtension@@PAUCKGUID@@@Z
?GetName@CKBaseManager@@QAEPADXZ
?GetName@CKBehaviorPrototype@@QAEPADXZ
?GetName@CKObject@@QAEPADXZ
?GetName@CKObjectDeclaration@@QAEPADXZ
?GetNbEnumDefined@CKParameterManager@@QAEHXZ
?GetNbFlagDefined@CKParameterManager@@QAEHXZ
?GetNbStructDefined@CKParameterManager@@QAEHXZ
?GetNearest@CKDataArray@@QAEHHPAXAAH@Z
?GetObjectA@CKBehaviorManager@@QAEPAVCKBeObject@@H@Z
?GetObjectA@CKContext@@QAEPAVCKObject@@K@Z
?GetObjectA@CKGroup@@QAEPAVCKBeObject@@H@Z
?GetObjectA@XObjectArray@@QBEPAVCKObject@@PAVCKContext@@I@Z
?GetObjectA@XSObjectArray@@QBEPAVCKObject@@PAVCKContext@@I@Z
?GetObjectAppData@CKObjectManager@@QAEPAXK@Z
?GetObjectByName@CKContext@@QAEPAVCKObject@@PADPAV2@@Z
?GetObjectByName@CKObjectManager@@QAEPAVCKObject@@PADJPAV2@@Z
?GetObjectByName@CKObjectManager@@QAEPAVCKObject@@PADPAV2@@Z
?GetObjectByNameAndClass@CKContext@@QAEPAVCKObject@@PADJPAV2@@Z
?GetObjectByNameAndParentClass@CKContext@@QAEPAVCKObject@@PADJPAV2@@Z
?GetObjectByNameAndParentClass@CKObjectManager@@QAEPAVCKObject@@PADJPAV2@@Z
?GetObjectCount@CKContext@@QAEHXZ
?GetObjectCount@CKGroup@@QAEHXZ
?GetObjectCount@CKScene@@QAEHXZ
?GetObjectFlags@CKObject@@QAEKXZ
?GetObjectFlags@CKScene@@QAE?AW4CK_SCENEOBJECT_FLAGS@@PAVCKSceneObject@@@Z
?GetObjectID@XObjectPointerArray@@QBEKI@Z
?GetObjectID@XSObjectPointerArray@@QBEKI@Z
?GetObjectInitialValue@CKScene@@QAEPAVCKStateChunk@@PAVCKSceneObject@@@Z
?GetObjectIterator@CKScene@@QAE?AVCKSceneObjectIterator@@XZ
?GetObjectListByType@CKContext@@QAEABVXObjectPointerArray@@JH@Z
?GetObjectListByType@CKObjectManager@@QAEJJAAVXObjectPointerArray@@H@Z
?GetObjectSize@CKContext@@QAEHPAVCKObject@@@Z
?GetObjects@CKDependenciesContext@@QAEPAVCKObject@@H@Z
?GetObjectsCount@CKBehaviorManager@@QAEHXZ
?GetObjectsCount@CKDependenciesContext@@QAEHXZ
?GetObjectsCount@CKObjectManager@@QAEHXZ
?GetObjectsCountByClassID@CKContext@@QAEHJ@Z
?GetObjectsCountByClassID@CKObjectManager@@QAEHJ@Z
?GetObjectsListByClassID@CKContext@@QAEPAKJ@Z
?GetObjectsListByClassID@CKObjectManager@@QAEPAKJ@Z
?GetOperationFunction@CKParameterManager@@QAEP6AXPAVCKContext@@PAVCKParameterOut@@PAVCKParameterIn@@2@ZAAUCKGUID@@333@Z
?GetOperationFunction@CKParameterOperation@@QAEP6AXPAVCKContext@@PAVCKParameterOut@@PAVCKParameterIn@@2@ZXZ
?GetOperationGuid@CKParameterOperation@@QAE?AUCKGUID@@XZ
?GetOrientation@CKWaveSound@@QAEXAAUVxVector@@0@Z
?GetOutIOIndex@CKBehaviorPrototype@@QAEHPAD@Z
?GetOutIOList@CKBehaviorPrototype@@QAEPAPAUCKBEHAVIORIO_DESC@@XZ
?GetOutParamIndex@CKBehaviorPrototype@@QAEHPAD@Z
?GetOutParameterCount@CKBehaviorPrototype@@QAEHXZ
?GetOutParameterList@CKBehaviorPrototype@@QAEPAPAUCKPARAMETER_DESC@@XZ
?GetOutTangent@CK2dCurvePoint@@QAEAAUVx2DVector@@XZ
?GetOutput@CKBehavior@@QAEPAVCKBehaviorIO@@H@Z
?GetOutputCount@CKBehavior@@QAEHXZ
?GetOutputCount@CKBehaviorPrototype@@QAEHXZ
?GetOutputParameter@CKBehavior@@QAEPAVCKParameterOut@@H@Z
?GetOutputParameterCount@CKBehavior@@QAEHXZ
?GetOutputParameterObject@CKBehavior@@QAEPAVCKObject@@H@Z
?GetOutputParameterPosition@CKBehavior@@QAEHPAVCKParameterOut@@@Z
?GetOutputParameterValue@CKBehavior@@QAEJHPAX@Z
?GetOutputParameterWriteDataPtr@CKBehavior@@QAEPAXH@Z
?GetOutputPosition@CKBehavior@@QAEHPAVCKBehaviorIO@@@Z
?GetOwner@CKBehavior@@QAEPAVCKBeObject@@XZ
?GetOwner@CKParameter@@QAEPAVCKObject@@XZ
?GetOwnerScript@CKBehavior@@QAEPAV1@XZ
?GetPVInformation@CKContext@@QAEHXZ
?GetPan@CKWaveSound@@QAEMXZ
?GetParameter@CKMessage@@QAEPAVCKParameter@@H@Z
?GetParameterClassID@CKParameter@@QAEJXZ
?GetParameterCount@CKMessage@@QAEHXZ
?GetParameterManager@CKContext@@QAEPAVCKParameterManager@@XZ
?GetParameterOperation@CKBehavior@@QAEPAVCKParameterOperation@@H@Z
?GetParameterOperationCount@CKBehavior@@QAEHXZ
?GetParameterOperationCount@CKParameterManager@@QAEHXZ
?GetParameterSize@CKParameterManager@@QAEHH@Z
?GetParameterTypeDescription@CKParameterManager@@QAEPAUCKParameterTypeDesc@@H@Z
?GetParameterTypeDescription@CKParameterManager@@QAEPAUCKParameterTypeDesc@@UCKGUID@@@Z
?GetParameterTypesCount@CKParameterManager@@QAEHXZ
?GetParent@CKBehavior@@QAEPAV1@XZ
?GetPathCount@CKPathManager@@QAEHH@Z
?GetPathIndex@CKPathManager@@QAEHHAAVXString@@@Z
?GetPathManager@CKContext@@QAEPAVCKPathManager@@XZ
?GetPathName@CKPathManager@@QAEJHHAAVXString@@@Z
?GetPickThreshold@CKBitmapData@@QAEHXZ
?GetPitch@CKWaveSound@@QAEMXZ
?GetPixel@CKBitmapData@@QAEKHHH@Z
?GetPlace@CKLevel@@QAEPAVCKPlace@@H@Z
?GetPlaceCount@CKLevel@@QAEHXZ
?GetPlayPosition@CKWaveSound@@QAEKXZ
?GetPlayedMs@CKWaveSound@@QAEHXZ
?GetPlayerRenderContext@CKContext@@QAEPAVCKRenderContext@@XZ
?GetPluginCount@CKPluginManager@@QAEHH@Z
?GetPluginDllCount@CKPluginManager@@QAEHXZ
?GetPluginDllInfo@CKPluginManager@@QAEPAUCKPluginDll@@H@Z
?GetPluginDllInfo@CKPluginManager@@QAEPAUCKPluginDll@@PADPAH@Z
?GetPluginIndex@CKObjectDeclaration@@QAEHXZ
?GetPluginInfo@CKPluginManager@@QAEPAUCKPluginEntry@@HH@Z
?GetPos@CK2dCurve@@QAEJMPAUVx2DVector@@@Z
?GetPosition@CK2dCurvePoint@@QAEAAUVx2DVector@@XZ
?GetPosition@CKObjectArray@@QAEHK@Z
?GetPosition@CKObjectArray@@QAEHPAVCKObject@@@Z
?GetPosition@CKWaveSound@@QAEXAAUVxVector@@@Z
?GetPriority@CKBeObject@@QAEHXZ
?GetPriority@CKBehavior@@QAEHXZ
?GetPriority@CKWaveSound@@QAEMXZ
?GetProfileStats@CKContext@@QAEXPAUCKStats@@@Z
?GetProto@CKObjectDeclaration@@QAEPAVCKBehaviorPrototype@@XZ
?GetPrototype@CKBehavior@@QAEPAVCKBehaviorPrototype@@XZ
?GetPrototypeGuid@CKBehavior@@QAE?AUCKGUID@@XZ
?GetPrototypeName@CKBehavior@@QAEPADXZ
?GetRCurvePos@CK2dCurvePoint@@IAEAAUVx2DVector@@XZ
?GetReader@CKWaveSound@@QAEPAVCKSoundReader@@XZ
?GetReaderOptionData@CKPluginManager@@QAEPAVCKParameterOut@@PAVCKContext@@PAXUCKFileExtension@@PAUCKGUID@@@Z
?GetRedMask@CKBitmapData@@QAEKXZ
?GetRenderContext@CKLevel@@QAEPAVCKRenderContext@@H@Z
?GetRenderContextCount@CKLevel@@QAEHXZ
?GetRenderManager@CKContext@@QAEPAVCKRenderManager@@XZ
?GetRendezVousArrivedObject@CKSynchroObject@@QAEPAVCKBeObject@@H@Z
?GetRendezVousNumberOfArrivedObjects@CKSynchroObject@@QAEHXZ
?GetRendezVousNumberOfWaiters@CKSynchroObject@@QAEHXZ
?GetRootEntities@CKObjectManager@@QAEJAAVXObjectPointerArray@@@Z
?GetRow@CKDataArray@@QAEPAV?$XSArray@K@@H@Z
?GetRowCount@CKDataArray@@QAEHXZ
?GetSaveFormat@CKBitmapData@@QAEPAUCKBitmapProperties@@XZ
?GetSaveOptions@CKBitmapData@@QAE?AW4CK_TEXTURE_SAVEOPTIONS@@XZ
?GetSaveOptions@CKSound@@QAE?AW4CK_SOUND_SAVEOPTIONS@@XZ
?GetScene@CKLevel@@QAEPAVCKScene@@H@Z
?GetSceneCount@CKLevel@@QAEHXZ
?GetSceneGlobalIndex@CKObjectManager@@QAEHXZ
?GetSceneIn@CKSceneObject@@QAEPAVCKScene@@H@Z
?GetSceneInCount@CKSceneObject@@QAEHXZ
?GetScript@CKBeObject@@QAEPAVCKBehavior@@H@Z
?GetScriptCount@CKBeObject@@QAEHXZ
?GetSecureGuid@CKContext@@QAE?AUCKGUID@@XZ
?GetSelectedRenderEngine@CKContext@@QAEHXZ
?GetShortestDelay@CKBehavior@@QAEHPAV1@@Z
?GetSingleObjectActivity@CKObjectManager@@QAEHPAVCKSceneObject@@AAK@Z
?GetSlotCount@CKBitmapData@@QAEHXZ
?GetSlotFileName@CKBitmapData@@QAEPADH@Z
?GetSound3DInformation@CKWaveSound@@QAEXAAUVxVector@@0AAM@Z
?GetSoundFileName@CKMidiSound@@QAEPADXZ
?GetSoundFileName@CKWaveSound@@QAEPADXZ
?GetSoundFormat@CKWaveSound@@QAEJAAUCKWaveFormat@@@Z
?GetSoundLength@CKWaveSound@@QAEHXZ
?GetSoundReader@CKPluginManager@@QAEPAVCKSoundReader@@AAUCKFileExtension@@PAUCKGUID@@@Z
?GetSource@CKWaveSound@@QAEPAXXZ
?GetSoureObjectDeclaration@CKBehaviorPrototype@@QAEPAVCKObjectDeclaration@@XZ
?GetStartOptions@CKContext@@QAEKXZ
?GetStartingCamera@CKScene@@QAEPAVCKCamera@@XZ
?GetState@CKWaveSound@@QAEKXZ
?GetStreamedBufferSize@CKSoundManager@@UAEKXZ
?GetStringBuffer@CKContext@@QAEPADH@Z
?GetStringValue@CKDataArray@@QAEHKHPAD@Z
?GetStructDescByType@CKParameterManager@@QAEPAUCKStructStruct@@H@Z
?GetSubBehavior@CKBehavior@@QAEPAV1@H@Z
?GetSubBehaviorCount@CKBehavior@@QAEHXZ
?GetSubBehaviorLink@CKBehavior@@QAEPAVCKBehaviorLink@@H@Z
?GetSubBehaviorLinkCount@CKBehavior@@QAEHXZ
?GetTarget@CKBehavior@@QAEPAVCKBeObject@@XZ
?GetTargetParameter@CKBehavior@@QAEPAVCKParameterIn@@XZ
?GetTension@CK2dCurvePoint@@QBEMXZ
?GetTimeManager@CKContext@@QAEPAVCKTimeManager@@XZ
?GetTimeToWaitForLimits@CKTimeManager@@QAEXAAM0@Z
?GetTransparentColor@CKBitmapData@@QAEKXZ
?GetType@CKBehavior@@QAE?AW4CK_BEHAVIOR_TYPE@@XZ
?GetType@CKObjectDeclaration@@QAEHXZ
?GetType@CKParameter@@QAEHXZ
?GetType@CKWaveSound@@QAE?AW4CK_WAVESOUND_TYPE@@XZ
?GetValidFunctionsMask@CKBaseManager@@UAEKXZ
?GetValidFunctionsMask@CKGridManager@@UAEKXZ
?GetValidFunctionsMask@CKObjectManager@@UAEKXZ
?GetValidFunctionsMask@CKSoundManager@@UAEKXZ
?GetValueObject@CKParameter@@QAEPAVCKObject@@H@Z
?GetVelocity@CKWaveSound@@QAEXAAUVxVector@@@Z
?GetVersion@CKBehavior@@QAEKXZ
?GetVersion@CKObjectDeclaration@@QAEKXZ
?GetVirtoolsTemporaryFolder@CKPathManager@@QAE?AVXString@@XZ
?GetWidth@CKBitmapData@@QAEHXZ
?GetY@CK2dCurve@@QAEMM@Z
?Goto@CKStateChunk@@QAEXH@Z
?GuidToClassID@CKParameterManager@@QAEJUCKGUID@@@Z
?HasAttribute@CKBeObject@@QAEHH@Z
?HasManagerDuplicates@CKContext@@QAEHPAVCKBaseManager@@@Z
?IDFind@CKObjectArray@@QAEKK@Z
?IDSeek@CKObjectArray@@QAEHK@Z
?InLoadSession@CKObjectManager@@QAEHXZ
?IncludeFile@CKFile@@QAEHPADH@Z
?InitFctPtrFromGuid@CKBehavior@@QAEJUCKGUID@@@Z
?InitFctPtrFromPrototype@CKBehavior@@QAEJPAVCKBehaviorPrototype@@@Z
?InitFromGuid@CKBehavior@@QAEJUCKGUID@@@Z
?InitFromPrototype@CKBehavior@@QAEJPAVCKBehaviorPrototype@@@Z
?InsertAt@CKObjectArray@@QAEXK@Z
?InsertAt@CKObjectArray@@QAEXPAVCKObject@@@Z
?InsertColumn@CKDataArray@@QAEXHW4CK_ARRAYTYPE@@PADUCKGUID@@@Z
?InsertFront@CKObjectArray@@QAEXK@Z
?InsertFront@CKObjectArray@@QAEXPAVCKObject@@@Z
?InsertInputParameter@CKBehavior@@QAEPAVCKParameterIn@@HPADH@Z
?InsertObjectAt@CKGroup@@QAEJPAVCKBeObject@@H@Z
?InsertOutputParameter@CKBehavior@@QAEPAVCKParameterOut@@HPADH@Z
?InsertRear@CKObjectArray@@QAEXK@Z
?InsertRear@CKObjectArray@@QAEXPAVCKObject@@@Z
?InsertRow@CKDataArray@@QAEPAV?$XSArray@K@@H@Z
?InsertSorted@CKObjectArray@@QAEXKP6AHPAVCKObject@@0@ZPAVCKContext@@@Z
?InsertSorted@CKObjectArray@@QAEXPAVCKObject@@P6AH00@ZPAVCKContext@@@Z
?InternalStop@CKWaveSound@@QAEXXZ
?IsActive@CKBehavior@@QAEHXZ
?IsActiveInCurrentScene@CKSceneObject@@QAEHXZ
?IsActiveInScene@CKSceneObject@@QAEHPAVCKScene@@@Z
?IsAttributeIndexValid@CKAttributeManager@@QAEHH@Z
?IsCategoryIndexValid@CKAttributeManager@@QAEHH@Z
?IsCompatibleWith@CKParameter@@QAEHPAV1@@Z
?IsCubeMap@CKBitmapData@@QAEHXZ
?IsDependenciesHere@CKDependenciesContext@@QAEHK@Z
?IsDerivedFrom@CKParameterManager@@QAEHHH@Z
?IsDerivedFrom@CKParameterManager@@QAEHUCKGUID@@0@Z
?IsDynamic@CKObject@@QAEHXZ
?IsEnabled@CKParameter@@QAEHXZ
?IsHiddenByParent@CKObject@@UAEHXZ
?IsHierarchicallyHide@CKObject@@QAEHXZ
?IsInClearAll@CKContext@@QAEHXZ
?IsInDynamicCreationMode@CKContext@@QAEHXZ
?IsInGroup@CKBeObject@@QAEHPAVCKGroup@@@Z
?IsInInterfaceMode@CKContext@@QAEHXZ
?IsInLoad@CKContext@@QAEHXZ
?IsInMode@CKDependenciesContext@@QAEHW4CK_DEPENDENCIES_OPMODE@@@Z
?IsInSave@CKContext@@QAEHXZ
?IsInScene@CKSceneObject@@QAEHPAVCKScene@@@Z
?IsInputActive@CKBehavior@@QAEHH@Z
?IsInputParameterEnabled@CKBehavior@@QAEHH@Z
?IsInterfaceObj@CKObject@@QAEHXZ
?IsLinear@CK2dCurvePoint@@QBEHXZ
?IsLocalParameterSetting@CKBehavior@@QAEHH@Z
?IsManagerActive@CKContext@@QAEHPAVCKBaseManager@@@Z
?IsMerged@CKAnimation@@UAEHXZ
?IsNotToBeSaved@CKObject@@QAEHXZ
?IsObjectActive@CKScene@@QAEHPAVCKSceneObject@@@Z
?IsObjectHere@CKScene@@QAEHPAVCKObject@@@Z
?IsObjectSafe@CKObjectManager@@QAEHPAVCKObject@@@Z
?IsObjectToBeSaved@CKFile@@QAEHK@Z
?IsObjectUsed@CKBeObject@@UAEHPAVCKObject@@J@Z
?IsObjectUsed@CKObject@@UAEHPAV1@J@Z
?IsOutputActive@CKBehavior@@QAEHH@Z
?IsOutputParameterEnabled@CKBehavior@@QAEHH@Z
?IsParameterTypeToBeShown@CKParameterManager@@QAEHH@Z
?IsParameterTypeToBeShown@CKParameterManager@@QAEHUCKGUID@@@Z
?IsParentScriptActiveInScene@CKBehavior@@QAEHPAVCKScene@@@Z
?IsPaused@CKMidiSound@@QAEHXZ
?IsPaused@CKWaveSound@@QAEHXZ
?IsPlaying@CKContext@@QAEHXZ
?IsPlaying@CKMidiSound@@QAEHXZ
?IsPlaying@CKWaveSound@@QAEHXZ
?IsPrivate@CKObject@@QAEHXZ
?IsProfilingEnable@CKContext@@QAEHXZ
?IsReseted@CKContext@@QAEHXZ
?IsRunTime@CKContext@@QAEHXZ
?IsStateActive@CKStateObject@@QAEHXZ
?IsTCB@CK2dCurvePoint@@QBEHXZ
?IsTargetable@CKBehavior@@QAEHXZ
?IsToBeDeleted@CKObject@@QAEHXZ
?IsTransparent@CKBitmapData@@QAEHXZ
?IsTypeCompatible@CKParameterManager@@QAEHHH@Z
?IsTypeCompatible@CKParameterManager@@QAEHUCKGUID@@0@Z
?IsUpToDate@CKObject@@QAEHXZ
?IsUsingFunction@CKBehavior@@QAEHXZ
?IsUsingTarget@CKBehavior@@QAEHXZ
?IsVisible@CKObject@@UAEHXZ
?IsWaitingForMessages@CKBeObject@@QAEHXZ
?LaunchScene@CKLevel@@QAEJPAVCKScene@@W4CK_SCENEOBJECTACTIVITY_FLAGS@@W4CK_SCENEOBJECTRESET_FLAGS@@@Z
?LeaveCriticalSection@CKCriticalSectionObject@@QAEHPAVCKBeObject@@@Z
?LeaveState@CKStateObject@@QAEXXZ
?ListEmpty@CKObjectArray@@QAEHXZ
?Load@CKBeObject@@UAEJPAVCKStateChunk@@PAVCKFile@@@Z
?Load@CKContext@@QAEJHPAXPAVCKObjectArray@@W4CK_LOAD_FLAGS@@@Z
?Load@CKContext@@QAEJPADPAVCKObjectArray@@W4CK_LOAD_FLAGS@@PAUCKGUID@@@Z
?Load@CKFile@@QAEJPADPAVCKObjectArray@@W4CK_LOAD_FLAGS@@@Z
?Load@CKFile@@QAEJPAXHPAVCKObjectArray@@W4CK_LOAD_FLAGS@@@Z
?Load@CKObject@@UAEJPAVCKStateChunk@@PAVCKFile@@@Z
?Load@CKPluginManager@@QAEJPAVCKContext@@PADPAVCKObjectArray@@W4CK_LOAD_FLAGS@@PAVCKCharacter@@PAUCKGUID@@@Z
?Load@XObjectArray@@QAEXPAVCKStateChunk@@@Z
?Load@XObjectPointerArray@@QAEXPAVCKContext@@PAVCKStateChunk@@@Z
?Load@XSObjectArray@@QAEXPAVCKStateChunk@@@Z
?Load@XSObjectPointerArray@@QAEXPAVCKContext@@PAVCKStateChunk@@@Z
?LoadAndSave@CKFile@@QAEXPAD0@Z
?LoadAnimationOnCharacter@CKContext@@QAEJHPAXPAVCKObjectArray@@PAVCKCharacter@@H@Z
?LoadAnimationOnCharacter@CKContext@@QAEJPADPAVCKObjectArray@@PAVCKCharacter@@PAUCKGUID@@H@Z
?LoadData@CKBaseManager@@UAEJPAVCKStateChunk@@PAVCKFile@@@Z
?LoadElements@CKDataArray@@QAEHPADHH@Z
?LoadFileData@CKFile@@QAEJPAVCKObjectArray@@@Z
?LoadFindObject@CKFile@@IAEKH@Z
?LoadMovieFile@CKBitmapData@@QAEHVXString@@@Z
?LoadSlotImage@CKBitmapData@@QAEHVXString@@H@Z
?LoadVerifyObjectUnicity@CKContext@@QAE?AW4CK_LOADMODE@@PADJQADPAPAVCKObject@@@Z
?Lock@CKWaveSound@@QAEJKKPAPAXPAK01W4CK_WAVESOUND_LOCKMODE@@@Z
?LockReadBuffer@CKStateChunk@@QAEPAXXZ
?LockSurfacePtr@CKBitmapData@@QAEPAEH@Z
?LockWriteBuffer@CKStateChunk@@QAEPAXH@Z
?MatchDeletion@CKObjectManager@@QAEPAVCKDeferredDeletion@@PAVCKDependencies@@K@Z
?Mem@CKMemoryPool@@QBEPAXXZ
?Merge@CKLevel@@QAEJPAV1@H@Z
?Merge@CKScene@@QAEJPAV1@PAVCKLevel@@@Z
?ModifyFlags@CKBehavior@@QAE?AW4CK_BEHAVIOR_FLAGS@@KK@Z
?ModifyObjectFlags@CKObject@@QAEXKK@Z
?ModifyObjectFlags@CKScene@@QAE?AW4CK_SCENEOBJECT_FLAGS@@PAVCKSceneObject@@KK@Z
?MoveColumn@CKDataArray@@QAEXHH@Z
?MoveObjectDown@CKGroup@@QAEXPAVCKBeObject@@@Z
?MoveObjectUp@CKGroup@@QAEXPAVCKBeObject@@@Z
?MoveRow@CKDataArray@@QAEXHH@Z
?NeedManager@CKObjectDeclaration@@QAEXUCKGUID@@@Z
?Next@CKObjectArray@@QAEXXZ
?NotifyEdition@CKBehavior@@QAEXXZ
?NotifySettingsEdition@CKBehavior@@QAEXXZ
?NotifyUpdate@CK2dCurvePoint@@QAEXXZ
?ObjectsByClass@CKObjectManager@@QAEHJHPAK@Z
?OnCKEnd@CKBaseManager@@UAEJXZ
?OnCKInit@CKBaseManager@@UAEJXZ
?OnCKPause@CKBaseManager@@UAEJXZ
?OnCKPlay@CKBaseManager@@UAEJXZ
?OnCKPostReset@CKBaseManager@@UAEJXZ
?OnCKReset@CKBaseManager@@UAEJXZ
?OnCKReset@CKObjectManager@@UAEJXZ
?OnPostCopy@CKBaseManager@@UAEJAAVCKDependenciesContext@@@Z
?OnPostRender@CKBaseManager@@UAEJPAVCKRenderContext@@@Z
?OnPostSpriteRender@CKBaseManager@@UAEJPAVCKRenderContext@@@Z
?OnPreCopy@CKBaseManager@@UAEJAAVCKDependenciesContext@@@Z
?OnPreRender@CKBaseManager@@UAEJPAVCKRenderContext@@@Z
?OpenFile@CKFile@@QAEJPADW4CK_LOAD_FLAGS@@@Z
?OpenMemory@CKFile@@QAEJPAXHW4CK_LOAD_FLAGS@@@Z
?OperationCodeToGuid@CKParameterManager@@QAE?AUCKGUID@@H@Z
?OperationCodeToName@CKParameterManager@@QAEPADH@Z
?OperationGuidToCode@CKParameterManager@@QAEHUCKGUID@@@Z
?OperationGuidToName@CKParameterManager@@QAEPADUCKGUID@@@Z
?OperationNameToCode@CKParameterManager@@QAEHPAD@Z
?OperationNameToGuid@CKParameterManager@@QAE?AUCKGUID@@PAD@Z
?OutputToConsole@CKContext@@QAEJPADH@Z
?OutputToConsoleEx@CKContext@@QAAJPADZZ
?OutputToConsoleExBeep@CKContext@@QAAJPADZZ
?OutputToInfo@CKContext@@QAAJPADZZ
?Pack@CKStateChunk@@QAEXH@Z
?ParameterGuidToName@CKParameterManager@@QAEPADUCKGUID@@@Z
?ParameterGuidToType@CKParameterManager@@QAEHUCKGUID@@@Z
?ParameterNameToGuid@CKParameterManager@@QAE?AUCKGUID@@PAD@Z
?ParameterNameToType@CKParameterManager@@QAEHPAD@Z
?ParameterTypeToGuid@CKParameterManager@@QAE?AUCKGUID@@H@Z
?ParameterTypeToName@CKParameterManager@@QAEPADH@Z
?ParsePlugins@CKPluginManager@@QAEHPAD@Z
?PasteShortcut@CKDataArray@@QAEHHHPAVCKParameter@@@Z
?PathIsAbsolute@CKPathManager@@QAEHAAVXString@@@Z
?PathIsFile@CKPathManager@@QAEHAAVXString@@@Z
?PathIsUNC@CKPathManager@@QAEHAAVXString@@@Z
?PathIsURL@CKPathManager@@QAEHAAVXString@@@Z
?Pause@CKContext@@QAEJXZ
?Pause@CKMidiSound@@QAEJH@Z
?Pause@CKWaveSound@@QAEXXZ
?PauseMinions@CKSoundManager@@QAEXXZ
?Play@CKContext@@QAEJXZ
?Play@CKMidiSound@@QAEJXZ
?Play@CKWaveSound@@QAEXMM@Z
?PlayMinion@CKWaveSound@@QAEPAXHPAVCK3dEntity@@PAUVxVector@@1M@Z
?PositionFind@CKObjectArray@@QAEKH@Z
?PositionSeek@CKObjectArray@@QAEHH@Z
?PositionSound@CKWaveSound@@QAEXPAVCK3dEntity@@PAUVxVector@@1H@Z
?PostClearAll@CKBaseManager@@UAEJXZ
?PostClearAll@CKSoundManager@@UAEJXZ
?PostLaunchScene@CKBaseManager@@UAEJPAVCKScene@@0@Z
?PostLoad@CKBaseManager@@UAEJXZ
?PostLoad@CKObject@@UAEXXZ
?PostProcess@CKBaseManager@@UAEJXZ
?PostProcess@CKObjectManager@@UAEJXZ
?PostSave@CKBaseManager@@UAEJXZ
?PreClearAll@CKBaseManager@@UAEJXZ
?PreDelete@CKBeObject@@UAEXXZ
?PreDelete@CKObject@@UAEXXZ
?PreLaunchScene@CKBaseManager@@UAEJPAVCKScene@@0@Z
?PreLoad@CKBaseManager@@UAEJXZ
?PreProcess@CKBaseManager@@UAEJXZ
?PreProcess@CKLevel@@QAEXXZ
?PreSave@CKBaseManager@@UAEJXZ
?PreSave@CKBeObject@@UAEXPAVCKFile@@K@Z
?PreSave@CKObject@@UAEXPAVCKFile@@K@Z
?Prepare@XObjectArray@@QBEXAAVCKDependenciesContext@@@Z
?Prepare@XObjectPointerArray@@QBEXAAVCKDependenciesContext@@@Z
?Prepare@XSObjectArray@@QBEXAAVCKDependenciesContext@@@Z
?Prepare@XSObjectPointerArray@@QBEXAAVCKDependenciesContext@@@Z
?PrepareDependencies@CKBeObject@@UAEJAAVCKDependenciesContext@@@Z
?PrepareDependencies@CKObject@@UAEJAAVCKDependenciesContext@@@Z
?Previous@CKObjectArray@@QAEXXZ
?Process@CKContext@@QAEJXZ
?ProcessDebugEnd@CKContext@@QAEJXZ
?ProcessDebugStart@CKContext@@QAEJM@Z
?ProcessDebugStep@CKContext@@QAEHXZ
?ProcessMinions@CKSoundManager@@QAEXXZ
?Product@CKDataArray@@QAEKH@Z
?PtrFind@CKObjectArray@@QAEKPAVCKObject@@@Z
?PtrSeek@CKObjectArray@@QAEHPAVCKObject@@@Z
?RandomShuffle@CKDataArray@@QAEXXZ
?ReLoadPluginDll@CKPluginManager@@QAEJH@Z
?Read@CK2dCurve@@QAEJPAVCKStateChunk@@@Z
?Read@CK2dCurvePoint@@IAEXPAVCKStateChunk@@@Z
?ReadAndFillBuffer@CKStateChunk@@QAEXHPAX@Z
?ReadAndFillBuffer@CKStateChunk@@QAEXPAX@Z
?ReadAndFillBuffer_LEndian16@CKStateChunk@@QAEXHPAX@Z
?ReadAndFillBuffer_LEndian16@CKStateChunk@@QAEXPAX@Z
?ReadAndFillBuffer_LEndian@CKStateChunk@@QAEXHPAX@Z
?ReadAndFillBuffer_LEndian@CKStateChunk@@QAEXPAX@Z
?ReadArray@CKStateChunk@@QAEHPAPAX@Z
?ReadArray_LEndian16@CKStateChunk@@QAEHPAPAX@Z
?ReadArray_LEndian@CKStateChunk@@QAEHPAPAX@Z
?ReadBitmap2@CKStateChunk@@QAEPAEAAUVxImageDescEx@@@Z
?ReadBitmap@CKStateChunk@@QAEPAXXZ
?ReadBuffer@CKStateChunk@@QAEHPAPAX@Z
?ReadByte@CKStateChunk@@QAEEXZ
?ReadDword@CKStateChunk@@QAEKXZ
?ReadDwordAsWords@CKStateChunk@@QAEKXZ
?ReadFileData@CKFile@@IAEJPAPAVCKBufferParser@@@Z
?ReadFileHeaders@CKFile@@IAEJPAPAVCKBufferParser@@@Z
?ReadFloat@CKStateChunk@@QAEMXZ
?ReadFromChunk@CKBitmapData@@QAEHPAVCKStateChunk@@PAVCKContext@@PAVCKFile@@QAK@Z
?ReadGuid@CKStateChunk@@QAE?AUCKGUID@@XZ
?ReadIdentifier@CKStateChunk@@QAEKXZ
?ReadInt@CKStateChunk@@QAEHXZ
?ReadManagerInt@CKStateChunk@@QAEHPAUCKGUID@@@Z
?ReadManagerIntSequence@CKStateChunk@@QAEHXZ
?ReadMatrix@CKStateChunk@@QAEXAAVVxMatrix@@@Z
?ReadObject@CKStateChunk@@QAEPAVCKObject@@PAVCKContext@@@Z
?ReadObjectArray@CKStateChunk@@QAEPAVCKObjectArray@@XZ
?ReadObjectArray@CKStateChunk@@QAEXPAVCKObjectArray@@@Z
?ReadObjectID@CKStateChunk@@QAEKXZ
?ReadRawBitmap@CKStateChunk@@QAEPAEAAUVxImageDescEx@@@Z
?ReadReaderBitmap@CKStateChunk@@QAEHABUVxImageDescEx@@@Z
?ReadString@CKStateChunk@@QAE?AVXString@@XZ
?ReadString@CKStateChunk@@QAEHPAPAD@Z
?ReadSubChunk@CKStateChunk@@QAEPAV1@XZ
?ReadVector@CKStateChunk@@QAEXAAUVxVector@@@Z
?ReadVector@CKStateChunk@@QAEXPAUVxVector@@@Z
?ReadWord@CKStateChunk@@QAEGXZ
?ReadXObjectArray@CKStateChunk@@QAEABVXObjectArray@@XZ
?ReadXObjectArray@CKStateChunk@@QAEABVXObjectPointerArray@@PAVCKContext@@@Z
?RealId@CKObjectManager@@QAEKK@Z
?Reconstruct@CKParameterOperation@@QAEXPADUCKGUID@@111@Z
?Recreate@CKWaveSound@@QAEJH@Z
?RefreshBuildingBlocks@CKContext@@QAEJABV?$XArray@UCKGUID@@@@@Z
?Register@CKBeObject@@SAXXZ
?Register@CKObject@@SAXXZ
?Register@CKSceneObject@@SAXXZ
?RegisterAttribute@CKSoundManager@@QAEXXZ
?RegisterDefaultMessages@CKMessageManager@@QAEJXZ
?RegisterDeletion@CKObjectManager@@QAEXPAVCKDeferredDeletion@@@Z
?RegisterLoadObject@CKObjectManager@@QAEXPAVCKObject@@H@Z
?RegisterNewAttributeType@CKAttributeManager@@QAEHPADUCKGUID@@JW4CK_ATTRIBUT_FLAGS@@@Z
?RegisterNewEnum@CKParameterManager@@QAEJUCKGUID@@PAD1@Z
?RegisterNewFlags@CKParameterManager@@QAEJUCKGUID@@PAD1@Z
?RegisterNewManager@CKContext@@QAEJPAVCKBaseManager@@@Z
?RegisterNewStructure@CKParameterManager@@QAAJUCKGUID@@PAD1ZZ
?RegisterNewStructure@CKParameterManager@@QAEJUCKGUID@@PAD1AAV?$XArray@UCKGUID@@@@@Z
?RegisterObject@CKObjectManager@@QAEKPAVCKObject@@@Z
?RegisterOperationFunction@CKParameterManager@@QAEJAAUCKGUID@@000P6AXPAVCKContext@@PAVCKParameterOut@@PAVCKParameterIn@@3@Z@Z
?RegisterOperationType@CKParameterManager@@QAEHUCKGUID@@PAD@Z
?RegisterParameterType@CKParameterManager@@QAEJPAUCKParameterTypeDesc@@@Z
?RegisterPlugin@CKPluginManager@@QAEJPAD@Z
?RegisterWait@CKMessageManager@@QAEJHPAVCKBehavior@@HPAVCKBeObject@@@Z
?RegisterWait@CKMessageManager@@QAEJPADPAVCKBehavior@@HPAVCKBeObject@@@Z
?Release@CKWaveSound@@QAEXXZ
?ReleaseAllSlots@CKBitmapData@@QAEHXZ
?ReleaseGroupGlobalIndex@CKObjectManager@@QAEXK@Z
?ReleaseMinions@CKSoundManager@@QAEXXZ
?ReleaseSceneGlobalIndex@CKObjectManager@@QAEXH@Z
?ReleaseSlot@CKBitmapData@@QAEHH@Z
?ReleaseSurfacePtr@CKBitmapData@@QAEHH@Z
?Remap@CKDependenciesContext@@QAEPAVCKObject@@PBV2@@Z
?Remap@XObjectArray@@QAEXAAVCKDependenciesContext@@@Z
?Remap@XObjectPointerArray@@QAEXAAVCKDependenciesContext@@@Z
?Remap@XSObjectArray@@QAEXAAVCKDependenciesContext@@@Z
?Remap@XSObjectPointerArray@@QAEXAAVCKDependenciesContext@@@Z
?RemapDependencies@CKBeObject@@UAEJAAVCKDependenciesContext@@@Z
?RemapDependencies@CKObject@@UAEJAAVCKDependenciesContext@@@Z
?RemapID@CKDependenciesContext@@QAEKAAK@Z
?RemapManagerInt@CKFile@@QAEXUCKGUID@@PAHH@Z
?RemapManagerInt@CKStateChunk@@QAEHUCKGUID@@PAHH@Z
?RemapObject@CKStateChunk@@QAEHKK@Z
?RemapObjects@CKStateChunk@@QAEHPAVCKContext@@PAVCKDependenciesContext@@@Z
?RemapParameterInt@CKStateChunk@@QAEHUCKGUID@@PAHH@Z
?Remove@CKObjectArray@@QAEHK@Z
?Remove@CKObjectArray@@QAEHPAVCKObject@@@Z
?RemoveAllAttributes@CKBeObject@@QAEXXZ
?RemoveAllDestinations@CKParameterOut@@QAEXXZ
?RemoveAllLastFrameMessage@CKBeObject@@IAEJXZ
?RemoveAllScripts@CKBeObject@@QAEJXZ
?RemoveAt@CKObjectArray@@QAEKXZ
?RemoveAttribute@CKBeObject@@QAEHH@Z
?RemoveCategory@CKAttributeManager@@QAEXPAD@Z
?RemoveCategory@CKPathManager@@QAEJH@Z
?RemoveCategory@CKPluginManager@@QAEJH@Z
?RemoveColumn@CKDataArray@@QAEXH@Z
?RemoveDestination@CKParameterOut@@QAEXPAVCKParameter@@@Z
?RemoveEscapedSpace@CKPathManager@@QAEXPAD@Z
?RemoveFromAllGroups@CKBeObject@@IAEXXZ
?RemoveFromAllScenes@CKSceneObject@@QAEXXZ
?RemoveFromScene@CKBeObject@@UAEXPAVCKScene@@H@Z
?RemoveFromScene@CKSceneObject@@UAEXPAVCKScene@@H@Z
?RemoveFromSelfScenes@CKBeObject@@QAEXPAVCKSceneObject@@@Z
?RemoveFront@CKObjectArray@@QAEKXZ
?RemoveInput@CKBehavior@@QAEPAVCKBehaviorIO@@H@Z
?RemoveInputParameter@CKBehavior@@QAEPAVCKParameterIn@@H@Z
?RemoveLocalParameter@CKBehavior@@QAEPAVCKParameterLocal@@H@Z
?RemoveObject@CKGroup@@QAEPAVCKBeObject@@H@Z
?RemoveObject@CKGroup@@QAEXPAVCKBeObject@@@Z
?RemoveObject@CKLevel@@QAEJK@Z
?RemoveObject@CKLevel@@QAEJPAVCKObject@@@Z
?RemoveObject@CKScene@@QAEXPAVCKSceneObject@@@Z
?RemoveObject@XObjectArray@@QAEHPAVCKObject@@@Z
?RemoveObject@XSObjectArray@@QAEHPAVCKObject@@@Z
?RemoveObjectFromScene@CKScene@@QAEXPAVCKSceneObject@@H@Z
?RemoveOutput@CKBehavior@@QAEPAVCKBehaviorIO@@H@Z
?RemoveOutputParameter@CKBehavior@@QAEPAVCKParameterOut@@H@Z
?RemoveParameter@CKMessage@@QAEJPAVCKParameter@@@Z
?RemoveParameterOperation@CKBehavior@@QAEPAVCKParameterOperation@@H@Z
?RemoveParameterOperation@CKBehavior@@QAEPAVCKParameterOperation@@PAV2@@Z
?RemovePath@CKPathManager@@QAEJHH@Z
?RemovePlace@CKLevel@@QAEJPAVCKPlace@@@Z
?RemovePlace@CKLevel@@QAEPAVCKPlace@@H@Z
?RemoveRear@CKObjectArray@@QAEKXZ
?RemoveRenderContext@CKLevel@@QAEXPAVCKRenderContext@@@Z
?RemoveRow@CKDataArray@@QAEXH@Z
?RemoveScene@CKLevel@@QAEJPAVCKScene@@@Z
?RemoveScene@CKLevel@@QAEPAVCKScene@@H@Z
?RemoveSceneIn@CKSceneObject@@QAEXPAVCKScene@@@Z
?RemoveScript@CKBeObject@@QAEPAVCKBehavior@@H@Z
?RemoveScript@CKBeObject@@QAEPAVCKBehavior@@K@Z
?RemoveShortcut@CKDataArray@@QAEPAVCKParameterOut@@HH@Z
?RemoveSpace@CKPathManager@@IAEXPAD@Z
?RemoveStateChunk@CKInterfaceObjectManager@@QAEXPAVCKStateChunk@@@Z
?RemoveSubBehavior@CKBehavior@@QAEPAV1@H@Z
?RemoveSubBehavior@CKBehavior@@QAEPAV1@PAV1@@Z
?RemoveSubBehaviorLink@CKBehavior@@QAEPAVCKBehaviorLink@@H@Z
?RemoveSubBehaviorLink@CKBehavior@@QAEPAVCKBehaviorLink@@PAV2@@Z
?RemoveTargetParameter@CKBehavior@@QAEPAVCKParameterIn@@XZ
?RenameCategory@CKPathManager@@QAEJHAAVXString@@@Z
?RenameCategory@CKPluginManager@@QAEJHPAD@Z
?RenameMessageType@CKMessageManager@@QAEXHPAD@Z
?RenameMessageType@CKMessageManager@@QAEXPAD0@Z
?RenamePath@CKPathManager@@QAEJHHAAVXString@@@Z
?ReplaceInput@CKBehavior@@QAEPAVCKBehaviorIO@@HPAV2@@Z
?ReplaceInputParameter@CKBehavior@@QAEPAVCKParameterIn@@HPAV2@@Z
?ReplaceOutput@CKBehavior@@QAEPAVCKBehaviorIO@@HPAV2@@Z
?ReplaceOutputParameter@CKBehavior@@QAEPAVCKParameterOut@@HPAV2@@Z
?ReplaceTargetParameter@CKBehavior@@QAEPAVCKParameterIn@@PAV2@@Z
?Reset@CKContext@@QAEJXZ
?Reset@CKCriticalSectionObject@@QAEXXZ
?Reset@CKObjectArray@@QAEXXZ
?Reset@CKSynchroObject@@QAEXXZ
?ResetChronos@CKTimeManager@@QAEXHH@Z
?ResetExecutionTime@CKBeObject@@IAEXXZ
?ResizeImages@CKBitmapData@@QAEHHH@Z
?ResolveFileName@CKPathManager@@QAEJAAVXString@@HH@Z
?ResolveReference@CKFile@@IAEPAVCKObject@@PAUCKFileObject@@@Z
?Resume@CKWaveSound@@QAEXXZ
?ResumeMinions@CKSoundManager@@QAEXXZ
?Reverse@CKDataArray@@QAEXXZ
?Rewind@CKWaveSound@@QAEXXZ
?Rindex@CK2dCurve@@IAEHH@Z
?Save@CKBeObject@@UAEPAVCKStateChunk@@PAVCKFile@@K@Z
?Save@CKContext@@QAEJPADPAVCKObjectArray@@KPAVCKDependencies@@PAUCKGUID@@@Z
?Save@CKObject@@UAEPAVCKStateChunk@@PAVCKFile@@K@Z
?Save@CKPluginManager@@QAEJPAVCKContext@@PADPAVCKObjectArray@@KPAUCKGUID@@@Z
?Save@XObjectArray@@QBEXPAVCKStateChunk@@PAVCKContext@@@Z
?Save@XObjectPointerArray@@QBEXPAVCKStateChunk@@@Z
?Save@XSObjectArray@@QBEXPAVCKStateChunk@@PAVCKContext@@@Z
?Save@XSObjectPointerArray@@QBEXPAVCKStateChunk@@@Z
?SaveData@CKBaseManager@@UAEPAVCKStateChunk@@PAVCKFile@@@Z
?SaveFindObjectIndex@CKFile@@IAEHK@Z
?SaveImage@CKBitmapData@@QAEHPADHH@Z
?SaveImageAlpha@CKBitmapData@@QAEHPADH@Z
?SaveObject@CKFile@@QAEXPAVCKObject@@K@Z
?SaveObjectAsReference@CKFile@@QAEXPAVCKObject@@@Z
?SaveObjects@CKFile@@QAEXPAKHK@Z
?SaveObjects@CKFile@@QAEXPAPAVCKObject@@HK@Z
?SaveObjects@CKFile@@QAEXPAVCKObjectArray@@K@Z
?Seek@CKObjectArray@@QAEKH@Z
?SeekIdentifier@CKStateChunk@@QAEHK@Z
?SeekIdentifierAndReturnSize@CKStateChunk@@QAEHK@Z
?Select@CKContext@@QAEJABVXObjectArray@@H@Z
?SendInterfaceMessage@CKContext@@QAEKKKK@Z
?SendMessage@CKMessageManager@@QAEJPAVCKMessage@@@Z
?SendMessageBroadcast@CKMessageManager@@QAEPAVCKMessage@@HJPAVCKBeObject@@@Z
?SendMessageGroup@CKMessageManager@@QAEPAVCKMessage@@HPAVCKGroup@@PAVCKBeObject@@@Z
?SendMessageSingle@CKMessageManager@@QAEPAVCKMessage@@HPAVCKBeObject@@0@Z
?SequenceAddedToScene@CKBaseManager@@UAEJPAVCKScene@@PAKH@Z
?SequenceDeleted@CKBaseManager@@UAEJPAKH@Z
?SequenceDeleted@CKSoundManager@@UAEJPAKH@Z
?SequenceRemovedFromScene@CKBaseManager@@UAEJPAVCKScene@@PAKH@Z
?SequenceToBeDeleted@CKBaseManager@@UAEJPAKH@Z
?SetAlphaForTransparentColor@CKBitmapData@@QAEXABUVxImageDescEx@@@Z
?SetAmbientLight@CKScene@@QAEXK@Z
?SetAppData@CKObject@@QAEXPAX@Z
?SetApplyToClassID@CKBehaviorPrototype@@QAEXJ@Z
?SetAsMyselfParameter@CKParameterLocal@@QAEXH@Z
?SetAsTargetable@CKBehavior@@QAEXH@Z
?SetAsWaitingForMessages@CKBeObject@@QAEXH@Z
?SetAttribute@CKBeObject@@QAEHHK@Z
?SetAttributeCallbackFunction@CKAttributeManager@@QAEXHP6AXHHPAVCKBeObject@@PAX@Z1@Z
?SetAttributeCategory@CKAttributeManager@@QAEXHPAD@Z
?SetAttributeDefaultValue@CKAttributeManager@@QAEXHPAD@Z
?SetAttributeNameByType@CKAttributeManager@@QAEXHPAD@Z
?SetAuthorGuid@CKObjectDeclaration@@QAEXUCKGUID@@@Z
?SetAuthorName@CKObjectDeclaration@@QAEXPAD@Z
?SetAutomaticLoadMode@CKContext@@QAEXW4CK_LOADMODE@@000@Z
?SetBackgroundColor@CKScene@@QAEXK@Z
?SetBackgroundTexture@CKScene@@QAEXPAVCKTexture@@@Z
?SetBehaviorCallbackFct@CKBehaviorPrototype@@QAEXP6AJABUCKBehaviorContext@@@ZKPAX@Z
?SetBehaviorFlags@CKBehaviorPrototype@@QAEXW4CK_BEHAVIOR_FLAGS@@@Z
?SetBehaviorMaxIteration@CKBehaviorManager@@QAEXH@Z
?SetBehavioralRateLimit@CKTimeManager@@QAEXM@Z
?SetBias@CK2dCurvePoint@@QAEXM@Z
?SetBorderColorForClamp@CKBitmapData@@QAEXABUVxImageDescEx@@@Z
?SetBroadcastObjectType@CKMessage@@QAEJJ@Z
?SetCallbackFunction@CKBehavior@@QAEXP6AJABUCKBehaviorContext@@@Z@Z
?SetCategory@CKObjectDeclaration@@QAEXPAD@Z
?SetCategoryName@CKAttributeManager@@QAEXHPAD@Z
?SetColumnName@CKDataArray@@QAEXHPAD@Z
?SetColumnType@CKDataArray@@QAEXHW4CK_ARRAYTYPE@@UCKGUID@@@Z
?SetCompatibleClassID@CKBehavior@@QAEXJ@Z
?SetCompatibleClassId@CKObjectDeclaration@@QAEXJ@Z
?SetCompressionLevel@CKContext@@QAEXH@Z
?SetCone@CKWaveSound@@QAEXMMM@Z
?SetContinuity@CK2dCurvePoint@@QAEXM@Z
?SetCreationFunction@CKObjectDeclaration@@QAEXP6AJPAPAVCKBehaviorPrototype@@@Z@Z
?SetCreationMode@CKDependenciesContext@@QAEXW4CK_OBJECTCREATION_OPTIONS@@@Z
?SetCubeMap@CKBitmapData@@QAEXH@Z
?SetCurrentLevel@CKContext@@QAEXPAVCKLevel@@@Z
?SetCurrentSlot@CKBitmapData@@QAEHH@Z
?SetCurve@CK2dCurvePoint@@IAEXPAVCK2dCurve@@@Z
?SetData@CKObjectArray@@QAEKPAVCKObject@@@Z
?SetDataId@CKObjectArray@@QAEKK@Z
?SetDataToRead@CKWaveSound@@QAEXH@Z
?SetDataVersion@CKStateChunk@@QAEXF@Z
?SetDescription@CKObjectDeclaration@@QAEXPAD@Z
?SetDirectSource@CKParameterIn@@QAEJPAVCKParameter@@@Z
?SetDynamic@CKObjectManager@@QAEXPAVCKObject@@@Z
?SetElementObject@CKDataArray@@QAEHHHPAVCKObject@@@Z
?SetElementStringValue@CKDataArray@@QAEHHHPAD@Z
?SetElementValue@CKDataArray@@QAEHHHPAXH@Z
?SetElementValueFromParameter@CKDataArray@@QAEHHHPAVCKParameter@@@Z
?SetFileStreaming@CKWaveSound@@QAEJHH@Z
?SetFileWriteMode@CKContext@@QAEXW4CK_FILE_WRITEMODE@@@Z
?SetFlags@CKBehavior@@QAEXW4CK_BEHAVIOR_FLAGS@@@Z
?SetFlags@CKBehaviorLink@@QAEXK@Z
?SetFlags@CKBehaviorPrototype@@QAEXW4CK_BEHAVIORPROTOTYPE_FLAGS@@@Z
?SetFogColor@CKScene@@QAEXK@Z
?SetFogDensity@CKScene@@QAEXM@Z
?SetFogEnd@CKScene@@QAEXM@Z
?SetFogMode@CKScene@@QAEXW4VXFOG_MODE@@@Z
?SetFogStart@CKScene@@QAEXM@Z
?SetFrameRateLimit@CKTimeManager@@QAEXM@Z
?SetFunction@CKBehavior@@QAEXP6AHABUCKBehaviorContext@@@Z@Z
?SetFunction@CKBehaviorPrototype@@QAEXP6AHABUCKBehaviorContext@@@Z@Z
?SetGUID@CKParameter@@QAEXUCKGUID@@@Z
?SetGUID@CKParameterIn@@QAEXUCKGUID@@HPAD@Z
?SetGain@CKWaveSound@@QAEXM@Z
?SetGlobalImagesSaveFormat@CKContext@@QAEXPAUCKBitmapProperties@@@Z
?SetGlobalImagesSaveOptions@CKContext@@QAEXW4CK_TEXTURE_SAVEOPTIONS@@@Z
?SetGlobalSoundsSaveOptions@CKContext@@QAEXW4CK_SOUND_SAVEOPTIONS@@@Z
?SetGuid@CKBehaviorPrototype@@QAEXUCKGUID@@@Z
?SetGuid@CKInterfaceObjectManager@@QAEXUCKGUID@@@Z
?SetGuid@CKObjectDeclaration@@QAEXUCKGUID@@@Z
?SetInBehaviorIO@CKBehaviorLink@@QAEJPAVCKBehaviorIO@@@Z
?SetInTangent@CK2dCurvePoint@@QAEXABUVx2DVector@@@Z
?SetInputParameterDefaultValue@CKBehavior@@QAEXPAVCKParameterIn@@PAVCKParameter@@@Z
?SetInterfaceChunk@CKBehavior@@QAEXPAVCKStateChunk@@@Z
?SetInterfaceMode@CKContext@@QAEXHP6AJAAUCKUICallbackStruct@@PAX@Z1@Z
?SetKeyColumn@CKDataArray@@QAEXH@Z
?SetLastCmoLoaded@CKContext@@QAEXPAD@Z
?SetLength@CK2dCurvePoint@@IAEXM@Z
?SetLinear@CK2dCurvePoint@@QAEXH@Z
?SetListener@CKSoundManager@@UAEXPAVCK3dEntity@@@Z
?SetLocalParameterObject@CKBehavior@@QAEJHPAVCKObject@@@Z
?SetLocalParameterValue@CKBehavior@@QAEJHPBXH@Z
?SetLoopMode@CKWaveSound@@QAEXH@Z
?SetMaximumDeltaTime@CKTimeManager@@QAEXM@Z
?SetMergeFactor@CKAnimation@@UAEXM@Z
?SetMinMaxDistance@CKWaveSound@@QAEXMMK@Z
?SetMinimumDeltaTime@CKTimeManager@@QAEXM@Z
?SetMovieInfo@CKBitmapData@@QAEXPAVCKMovieInfo@@@Z
?SetName@CKObject@@QAEXPADH@Z
?SetNextActiveScene@CKLevel@@QAEJPAVCKScene@@W4CK_SCENEOBJECTACTIVITY_FLAGS@@W4CK_SCENEOBJECTRESET_FLAGS@@@Z
?SetObjectAppData@CKObjectManager@@QAEXKPAX@Z
?SetObjectFlags@CKScene@@QAEXPAVCKSceneObject@@W4CK_SCENEOBJECT_FLAGS@@@Z
?SetObjectInitialValue@CKScene@@QAEHPAVCKSceneObject@@PAVCKStateChunk@@@Z
?SetOperationMode@CKDependenciesContext@@QAEXW4CK_DEPENDENCIES_OPMODE@@@Z
?SetOrientation@CKWaveSound@@QAEXAAUVxVector@@0@Z
?SetOutBehaviorIO@CKBehaviorLink@@QAEJPAVCKBehaviorIO@@@Z
?SetOutTangent@CK2dCurvePoint@@QAEXABUVx2DVector@@@Z
?SetOutputParameterObject@CKBehavior@@QAEJHPAVCKObject@@@Z
?SetOutputParameterValue@CKBehavior@@QAEJHPBXH@Z
?SetOwner@CKBehavior@@QAEJPAVCKBeObject@@H@Z
?SetPan@CKWaveSound@@QAEXM@Z
?SetPickThreshold@CKBitmapData@@QAEXH@Z
?SetPitch@CKWaveSound@@QAEXM@Z
?SetPixel@CKBitmapData@@QAEHHHKH@Z
?SetPosition@CK2dCurvePoint@@QAEXABUVx2DVector@@@Z
?SetPriority@CKBeObject@@QAEXH@Z
?SetPriority@CKBehavior@@QAEXH@Z
?SetPriority@CKWaveSound@@QAEXM@Z
?SetProto@CKObjectDeclaration@@QAEXPAVCKBehaviorPrototype@@@Z
?SetRCurvePos@CK2dCurvePoint@@IAEXAAUVx2DVector@@@Z
?SetReader@CKWaveSound@@QAEJPAVCKSoundReader@@@Z
?SetReaderOptionData@CKPluginManager@@QAEHPAVCKContext@@PAXPAVCKParameterOut@@UCKFileExtension@@PAUCKGUID@@@Z
?SetRendezVousNumberOfWaiters@CKSynchroObject@@QAEXH@Z
?SetSaveFormat@CKBitmapData@@QAEXPAUCKBitmapProperties@@@Z
?SetSaveOptions@CKBitmapData@@QAEXW4CK_TEXTURE_SAVEOPTIONS@@@Z
?SetSaveOptions@CKSound@@QAEXW4CK_SOUND_SAVEOPTIONS@@@Z
?SetSlotCount@CKBitmapData@@QAEHH@Z
?SetSlotFileName@CKBitmapData@@QAEHHPAD@Z
?SetSlotImage@CKBitmapData@@QAEHHPAXAAUVxImageDescEx@@@Z
?SetSoundFileName@CKMidiSound@@QAEJPAD@Z
?SetSoundFileName@CKWaveSound@@QAEJQAD@Z
?SetStartingCamera@CKScene@@QAEXPAVCKCamera@@@Z
?SetState@CKWaveSound@@QAEXK@Z
?SetStreamedBufferSize@CKSoundManager@@UAEXK@Z
?SetSubBehaviorOwner@CKBehavior@@QAEJPAVCKBeObject@@H@Z
?SetTension@CK2dCurvePoint@@QAEXM@Z
?SetTransparent@CKBitmapData@@QAEXH@Z
?SetTransparentColor@CKBitmapData@@QAEXK@Z
?SetType@CKBehavior@@QAEXW4CK_BEHAVIOR_TYPE@@@Z
?SetType@CKObjectDeclaration@@QAEXH@Z
?SetType@CKParameter@@QAEXH@Z
?SetType@CKParameterIn@@QAEXHHPAD@Z
?SetType@CKWaveSound@@QAEXW4CK_WAVESOUND_TYPE@@@Z
?SetUserLoadCallback@CKContext@@QAEXP6A?AW4CK_LOADMODE@@JPAD0PAPAVCKObject@@PAX@Z2@Z
?SetVelocity@CKWaveSound@@QAEXAAUVxVector@@@Z
?SetVersion@CKBehavior@@QAEXK@Z
?SetVersion@CKObjectDeclaration@@QAEXK@Z
?SetVirtoolsVersion@CKContext@@QAEXW4CK_VIRTOOLS_VERSION@@K@Z
?ShareSourceWith@CKParameterIn@@QAEJPAV1@@Z
?Show@CKObject@@UAEXW4CK_OBJECT_SHOWOPTION@@@Z
?ShowSetup@CKContext@@QAEJK@Z
?Skip@CKStateChunk@@QAEXH@Z
?Sort@CKDataArray@@QAEXHH@Z
?Sort@CKObjectArray@@QAEXP6AHPAVCKObject@@0@ZPAVCKContext@@@Z
?SortScripts@CKBeObject@@IAEXXZ
?StartDependencies@CKDependenciesContext@@QAEXPAVCKDependencies@@@Z
?StartLoadSession@CKObjectManager@@QAEXH@Z
?StartManagerReadSequence@CKStateChunk@@QAEHPAUCKGUID@@@Z
?StartManagerSequence@CKStateChunk@@QAEXUCKGUID@@H@Z
?StartObjectIDSequence@CKStateChunk@@QAEXH@Z
?StartProfile@CKBaseManager@@QAEXXZ
?StartRead@CKStateChunk@@QAEXXZ
?StartReadSequence@CKStateChunk@@QAEHXZ
?StartSave@CKFile@@QAEJPADK@Z
?StartSubChunkSequence@CKStateChunk@@QAEXH@Z
?StartWrite@CKStateChunk@@QAEXXZ
?Stop@CKMidiSound@@QAEJXZ
?Stop@CKSoundManager@@UAEXPAVCKWaveSound@@PAX@Z
?Stop@CKWaveSound@@QAEXM@Z
?StopDependencies@CKDependenciesContext@@QAEXXZ
?StopProfile@CKBaseManager@@QAEXXZ
?Sum@CKDataArray@@QAEKH@Z
?SwapCurrentWithNext@CKObjectArray@@QAEXXZ
?SwapCurrentWithPrevious@CKObjectArray@@QAEXXZ
?SwapPaths@CKPathManager@@QAEJHHH@Z
?SwapRows@CKDataArray@@QAEXHH@Z
?TestRow@CKDataArray@@QAEHHHW4CK_COMPOPERATOR@@KH@Z
?ToRestore@CKBitmapData@@QAEHXZ
?TryRecreate@CKWaveSound@@QAEJXZ
?TypeToClassID@CKParameterManager@@QAEJH@Z
?UICopyObjects@CKContext@@QAEJABVXObjectArray@@H@Z
?UIPasteObjects@CKContext@@QAEJABVXObjectArray@@@Z
?UnLoadPluginDll@CKPluginManager@@QAEJH@Z
?UnPack@CKStateChunk@@QAEHH@Z
?UnRegisterAttribute@CKAttributeManager@@QAEXH@Z
?UnRegisterAttribute@CKAttributeManager@@QAEXPAD@Z
?UnRegisterObject@CKObjectManager@@QAEXK@Z
?UnRegisterOperationFunction@CKParameterManager@@QAEJAAUCKGUID@@000@Z
?UnRegisterOperationType@CKParameterManager@@QAEJH@Z
?UnRegisterOperationType@CKParameterManager@@QAEJUCKGUID@@@Z
?UnRegisterParameterType@CKParameterManager@@QAEJUCKGUID@@@Z
?UnRegisterWait@CKMessageManager@@QAEJHPAVCKBehavior@@H@Z
?UnRegisterWait@CKMessageManager@@QAEJPADPAVCKBehavior@@H@Z
?UnSetDynamic@CKObjectManager@@QAEXPAVCKObject@@@Z
?Unique@CKDataArray@@QAEXH@Z
?Unlock@CKWaveSound@@QAEJPAXK0K@Z
?Update@CK2dCurve@@QAEXXZ
?UpdateAndApplyAnimationsTo@CKFile@@QAEXPAVCKCharacter@@@Z
?UpdateDataSize@CKStateChunk@@QAEXXZ
?UpdateFade@CKWaveSound@@QAEXXZ
?UpdatePointsAndTangents@CK2dCurve@@IAEXXZ
?UpdatePosition@CKWaveSound@@QAEXM@Z
?UseEnvironmentSettings@CKScene@@QAEXH@Z
?UseFunction@CKBehavior@@QAEXXZ
?UseGraph@CKBehavior@@QAEXXZ
?UseTCB@CK2dCurvePoint@@QAEXH@Z
?UseTarget@CKBehavior@@QAEJH@Z
?UserProfileEnd@CKContext@@QAEMK@Z
?UserProfileStart@CKContext@@QAEXK@Z
?WriteArray@CKStateChunk@@QAEXHHPAX@Z
?WriteArray_LEndian16@CKStateChunk@@QAEXHHPAX@Z
?WriteArray_LEndian@CKStateChunk@@QAEXHHPAX@Z
?WriteBitmap@CKStateChunk@@QAEXPAXPAD@Z
?WriteBuffer@CKStateChunk@@QAEXHPAX@Z
?WriteBufferNoSize@CKStateChunk@@QAEXHPAX@Z
?WriteBufferNoSize_LEndian16@CKStateChunk@@QAEXHPAX@Z
?WriteBufferNoSize_LEndian@CKStateChunk@@QAEXHPAX@Z
?WriteBuffer_LEndian16@CKStateChunk@@QAEXHPAX@Z
?WriteBuffer_LEndian@CKStateChunk@@QAEXHPAX@Z
?WriteByte@CKStateChunk@@QAEXD@Z
?WriteData@CKWaveSound@@QAEJPAEH@Z
?WriteDataFromReader@CKWaveSound@@QAEJXZ
?WriteDword@CKStateChunk@@QAEXK@Z
?WriteDwordAsWords@CKStateChunk@@QAEXK@Z
?WriteElements@CKDataArray@@QAEHPADHHH@Z
?WriteFloat@CKStateChunk@@QAEXM@Z
?WriteGuid@CKStateChunk@@QAEXUCKGUID@@@Z
?WriteIdentifier@CKStateChunk@@QAEXK@Z
?WriteInt@CKStateChunk@@QAEXH@Z
?WriteManagerInt@CKStateChunk@@QAEXUCKGUID@@H@Z
?WriteManagerSequence@CKStateChunk@@QAEXH@Z
?WriteMatrix@CKStateChunk@@QAEXABVVxMatrix@@@Z
?WriteObject@CKStateChunk@@QAEXPAVCKObject@@@Z
?WriteObjectArray@CKStateChunk@@QAEXPAVCKObjectArray@@PAVCKContext@@@Z
?WriteObjectID@CKStateChunk@@QAEXK@Z
?WriteObjectIDSequence@CKStateChunk@@QAEXK@Z
?WriteObjectSequence@CKStateChunk@@QAEXPAVCKObject@@@Z
?WriteRawBitmap@CKStateChunk@@QAEXABUVxImageDescEx@@@Z
?WriteReaderBitmap@CKStateChunk@@QAEXABUVxImageDescEx@@PAVCKBitmapReader@@PAUCKBitmapProperties@@@Z
?WriteStats@CKFile@@IAEXH@Z
?WriteString@CKStateChunk@@QAEXPAD@Z
?WriteSubChunk@CKStateChunk@@QAEXPAV1@@Z
?WriteSubChunkSequence@CKStateChunk@@QAEXPAV1@@Z
?WriteVector@CKStateChunk@@QAEXABUVxVector@@@Z
?WriteVector@CKStateChunk@@QAEXPBUVxVector@@@Z
?WriteWord@CKStateChunk@@QAEXG@Z
?g_InterfaceMode@@3HA DATA
?m_ClassID@CKBeObject@@2JA DATA
?m_ClassID@CKObject@@2JA DATA
?m_ClassID@CKSceneObject@@2KA DATA
