LIBRARY "VxMath.dll"
EXPORTS
??0CKDirectoryParser@@QAE@PAD0H@Z
??0CKPathMaker@@QAE@PAD000@Z
??0CKPathSplitter@@QAE@PAD@Z
??0VxConfig@@QAE@XZ
??0VxConfiguration@@QAE@G@Z
??0VxFrustum@@QAE@ABUVxVector@@000MMMM@Z
??0VxFrustum@@QAE@XZ
??0VxMemoryMappedFile@@QAE@PAD@Z
??0VxMutex@@QAE@XZ
??0VxSharedLibrary@@QAE@XZ
??0VxThread@@QAE@XZ
??0VxTimeProfiler@@QAE@XZ
??0XString@@QAE@ABV0@@Z
??0XString@@QAE@ABVXBaseString@@@Z
??0XString@@QAE@H@Z
??0XString@@QAE@PBDH@Z
??1CKDirectoryParser@@QAE@XZ
??1CKPathSplitter@@QAE@XZ
??1VxConfig@@QAE@XZ
??1VxConfiguration@@QAE@XZ
??1VxConfigurationEntry@@QAE@XZ
??1VxConfigurationSection@@QAE@XZ
??1VxMemoryMappedFile@@QAE@XZ
??1VxMutex@@QAE@XZ
??1VxThread@@UAE@XZ
??1XString@@QAE@XZ
??4CKPathMaker@@QAEAAV0@ABV0@@Z
??4CKPathSplitter@@QAEAAV0@ABV0@@Z
??4VxTimeProfiler@@QAEAAV0@ABV0@@Z
??4VxVector@@QAEAAU0@ABUVxCompressedVector@@@Z
??4XString@@QAEAAV0@ABV0@@Z
??4XString@@QAEAAV0@ABVXBaseString@@@Z
??4XString@@QAEAAV0@PBD@Z
??6XString@@QAEAAV0@ABVXBaseString@@@Z
??6XString@@QAEAAV0@D@Z
??6XString@@QAEAAV0@H@Z
??6XString@@QAEAAV0@I@Z
??6XString@@QAEAAV0@M@Z
??6XString@@QAEAAV0@PBD@Z
??EVxMutex@@QAEHH@Z
??FVxMutex@@QAEHH@Z
??_FVxConfiguration@@QAEXXZ
?AABBAABB@VxIntersect@@SAHABUVxBbox@@0@Z
?AABBFace@VxIntersect@@SAHABUVxBbox@@ABUVxVector@@111@Z
?AABBOBB@VxIntersect@@SAHABUVxBbox@@ABVVxOBB@@@Z
?AddDefaultEntry@VxConfiguration@@QAEHPAD0H@Z
?AddDefaultEntry@VxConfiguration@@QAEHPAD0I@Z
?AddDefaultEntry@VxConfiguration@@QAEHPAD0J@Z
?AddDefaultEntry@VxConfiguration@@QAEHPAD0K@Z
?AddDefaultEntry@VxConfiguration@@QAEHPAD0M@Z
?AddDefaultEntry@VxConfiguration@@QAEHPAD0PBD@Z
?AddDirectorySeparator@@YAXAAVXString@@@Z
?AddEntry@VxConfiguration@@QAEHPAD0HPAPAVVxConfigurationEntry@@@Z
?AddEntry@VxConfiguration@@QAEHPAD0IPAPAVVxConfigurationEntry@@@Z
?AddEntry@VxConfiguration@@QAEHPAD0JPAPAVVxConfigurationEntry@@@Z
?AddEntry@VxConfiguration@@QAEHPAD0KPAPAVVxConfigurationEntry@@@Z
?AddEntry@VxConfiguration@@QAEHPAD0MPAPAVVxConfigurationEntry@@@Z
?AddEntry@VxConfiguration@@QAEHPAD0PBDPAPAVVxConfigurationEntry@@@Z
?AddEntry@VxConfigurationSection@@QAEXPADHPAPAVVxConfigurationEntry@@@Z
?AddEntry@VxConfigurationSection@@QAEXPADIPAPAVVxConfigurationEntry@@@Z
?AddEntry@VxConfigurationSection@@QAEXPADJPAPAVVxConfigurationEntry@@@Z
?AddEntry@VxConfigurationSection@@QAEXPADKPAPAVVxConfigurationEntry@@@Z
?AddEntry@VxConfigurationSection@@QAEXPADMPAPAVVxConfigurationEntry@@@Z
?AddEntry@VxConfigurationSection@@QAEXPADPBDPAPAVVxConfigurationEntry@@@Z
?Attach@VxSharedLibrary@@QAEXPAX@Z
?BeginChildEntry@VxConfigurationSection@@QBE?AV?$XHashTableConstIt@PAVVxConfigurationEntry@@VXString@@U?$XHashFun@VXString@@@@U?$XEqual@VXString@@@@@@XZ
?BeginChildSection@VxConfigurationSection@@QBE?AV?$XHashTableConstIt@PAVVxConfigurationSection@@VXString@@U?$XHashFun@VXString@@@@U?$XEqual@VXString@@@@@@XZ
?BeginEntries@VxConfiguration@@QBE?AV?$XHashTableConstIt@PAVVxConfigurationEntry@@VXString@@U?$XHashFun@VXString@@@@U?$XEqual@VXString@@@@@@XZ
?BeginSections@VxConfiguration@@QBE?AV?$XHashTableConstIt@PAVVxConfigurationSection@@VXString@@U?$XHashFun@VXString@@@@U?$XEqual@VXString@@@@@@XZ
?BoxPlane@VxIntersect@@SAHABUVxBbox@@ABVVxMatrix@@ABVVxPlane@@@Z
?BoxPlane@VxIntersect@@SAHABUVxBbox@@ABVVxPlane@@@Z
?BuildFromDataFile@VxConfiguration@@QAEHPBDAAVXString@@@Z
?BuildFromFile@VxConfiguration@@QAEHPBDAAHAAVXString@@@Z
?BuildFromMemory@VxConfiguration@@QAEHPBDAAHAAVXString@@@Z
?Classify@VxBbox@@QBEHABU1@ABUVxVector@@@Z
?ClassifyVertices@VxBbox@@QBEXHPAEKPAK@Z
?ClassifyVerticesOneAxis@VxBbox@@QBEXHPAEKHPAK@Z
?Clear@VxConfiguration@@QAEXXZ
?Clear@VxConfigurationSection@@QAEXXZ
?ClearDefault@VxConfiguration@@QAEXXZ
?Close@VxThread@@QAEXXZ
?CloseSection@VxConfig@@QAEXPAD@Z
?ComputeVertices@VxFrustum@@QBEXQAUVxVector@@@Z
?ConvertPathToSystemPath@@YAXAAVXString@@@Z
?Covariance@VxEigenMatrix@@QAEXPBEKH@Z
?Create@VxPlane@@QAEXABUVxVector@@00@Z
?Create@VxPlane@@QAEXABUVxVector@@0@Z
?Create@XString@@QAEAAV1@PBDH@Z
?CreateDefaultSubSection@VxConfiguration@@QAEPAVVxConfigurationSection@@PAD0@Z
?CreateSubSection@VxConfiguration@@QAEPAVVxConfigurationSection@@PAD0@Z
?CreateSubSection@VxConfigurationSection@@QAEPAV1@PAD@Z
?CreateThread@VxThread@@QAEHP6AIPAX@Z0@Z
?Crop@XString@@QAEAAV1@GG@Z
?Current@VxTimeProfiler@@QAEMXZ
?Cut@XString@@QAEAAV1@GG@Z
?DeleteEntry@VxConfiguration@@QAEHPAD0@Z
?DeleteEntry@VxConfigurationSection@@QAEHPAD@Z
?DeleteSection@VxConfiguration@@QAEHPAD0@Z
?DeleteSection@VxConfigurationSection@@QAEHPAD@Z
?EigenStuff3@VxEigenMatrix@@QAEXXZ
?EnterMutex@VxMutex@@QAEHXZ
?Exp@@YA?AUVxQuaternion@@ABU1@@Z
?FaceFace@VxIntersect@@SAHABUVxVector@@0000000@Z
?Find@XString@@QBEGABVXBaseString@@G@Z
?Find@XString@@QBEGDG@Z
?Format@XString@@QAAAAV1@PBDZZ
?FromEulerAngles@VxQuaternion@@QAEXMMM@Z
?FromMatrix@VxQuaternion@@QAEXABVVxMatrix@@HH@Z
?FromRotation@VxQuaternion@@QAEXABUVxVector@@M@Z
?FrustumAABB@VxIntersect@@SAHABVVxFrustum@@ABUVxBbox@@@Z
?FrustumBox@VxIntersect@@SAHABVVxFrustum@@ABUVxBbox@@ABVVxMatrix@@@Z
?FrustumFace@VxIntersect@@SAHABVVxFrustum@@ABUVxVector@@11@Z
?FrustumOBB@VxIntersect@@SAHABVVxFrustum@@ABUVxBbox@@ABVVxMatrix@@@Z
?GetBase@VxMemoryMappedFile@@QAEPAXXZ
?GetBitCount@@YAKK@Z
?GetBitShift@@YAKK@Z
?GetCurrentVxThread@VxThread@@SAPAV1@XZ
?GetCurrentVxThreadId@VxThread@@SAKXZ
?GetDir@CKPathSplitter@@QAEPADXZ
?GetDrive@CKPathSplitter@@QAEPADXZ
?GetEntry@VxConfiguration@@QBEPAVVxConfigurationEntry@@PADH@Z
?GetEntry@VxConfigurationSection@@QBEPAVVxConfigurationEntry@@PAD@Z
?GetErrorType@VxMemoryMappedFile@@QAE?AW4VxMMF_Error@@XZ
?GetExitCode@VxThread@@QAEHAAI@Z
?GetExtension@CKPathSplitter@@QAEPADXZ
?GetFileName@CKPathMaker@@QAEPADXZ
?GetFileSize@VxMemoryMappedFile@@QAEKXZ
?GetFunctionPtr@VxSharedLibrary@@QAEPAXPAD@Z
?GetHandle@VxThread@@QBEQAXXZ
?GetID@VxThread@@QBEKXZ
?GetName@CKPathSplitter@@QAEPADXZ
?GetName@VxConfigurationEntry@@QBEPBDXZ
?GetName@VxConfigurationSection@@QBEPBDXZ
?GetName@VxThread@@QBEABVXString@@XZ
?GetNextChildEntry@VxConfigurationSection@@QBEPAVVxConfigurationEntry@@AAV?$XHashTableConstIt@PAVVxConfigurationEntry@@VXString@@U?$XHashFun@VXString@@@@U?$XEqual@VXString@@@@@@@Z
?GetNextChildSection@VxConfigurationSection@@QBEPAV1@AAV?$XHashTableConstIt@PAVVxConfigurationSection@@VXString@@U?$XHashFun@VXString@@@@U?$XEqual@VXString@@@@@@@Z
?GetNextEntry@VxConfiguration@@QBEPAVVxConfigurationEntry@@AAV?$XHashTableConstIt@PAVVxConfigurationEntry@@VXString@@U?$XHashFun@VXString@@@@U?$XEqual@VXString@@@@@@@Z
?GetNextFile@CKDirectoryParser@@QAEPADXZ
?GetNextSection@VxConfiguration@@QBEPAVVxConfigurationSection@@AAV?$XHashTableConstIt@PAVVxConfigurationSection@@VXString@@U?$XHashFun@VXString@@@@U?$XEqual@VXString@@@@@@@Z
?GetNumberOfEntries@VxConfiguration@@QBEHXZ
?GetNumberOfEntries@VxConfigurationSection@@QBEHXZ
?GetNumberOfEntriesRecursive@VxConfiguration@@QBEHXZ
?GetNumberOfEntriesRecursive@VxConfigurationSection@@QBEHXZ
?GetNumberOfSubSections@VxConfiguration@@QBEHXZ
?GetNumberOfSubSections@VxConfigurationSection@@QBEHXZ
?GetNumberOfSubSectionsRecursive@VxConfiguration@@QBEHXZ
?GetNumberOfSubSectionsRecursive@VxConfigurationSection@@QBEHXZ
?GetParent@VxConfigurationEntry@@QBEPAVVxConfigurationSection@@XZ
?GetParent@VxConfigurationSection@@QBEPAV1@XZ
?GetPointCoefficients@VxIntersect@@SAXABUVxVector@@000ABH1AAM22@Z
?GetPriority@VxThread@@QBEIXZ
?GetProcessorDescription@@YAPADXZ
?GetProcessorFeatures@@YAKXZ
?GetProcessorFrequency@@YAHXZ
?GetProcessorType@@YA?AW4ProcessorsType@@XZ
?GetQuantizationSamplingFactor@@YAHXZ
?GetSubSection@VxConfiguration@@QBEPAVVxConfigurationSection@@PADH@Z
?GetSubSection@VxConfigurationSection@@QBEPAV1@PAD@Z
?GetValue@VxConfigurationEntry@@QBEPBDXZ
?GetValueAsFloat@VxConfigurationEntry@@QBEHAAM@Z
?GetValueAsInteger@VxConfigurationEntry@@QBEHAAH@Z
?GetValueAsLong@VxConfigurationEntry@@QBEHAAJ@Z
?GetValueAsUnsignedInteger@VxConfigurationEntry@@QBEHAAI@Z
?GetValueAsUnsignedLong@VxConfigurationEntry@@QBEHAAK@Z
?ICompare@XString@@QBEHABVXBaseString@@@Z
?Identity@VxMatrix@@SAABV1@XZ
?InterpolateFloatArray@@YAXPAX00MH@Z
?InterpolateVectorArray@@YAXPAX00MHKK@Z
?IsCreated@VxThread@@QBEHXZ
?IsJoinable@VxThread@@QBEHXZ
?IsMainThread@VxThread@@QBEHXZ
?IsStarted@VxThread@@QBEHXZ
?IsValid@VxMemoryMappedFile@@QAEHXZ
?LeaveMutex@VxMutex@@QAEHXZ
?LineBox@VxIntersect@@SAHABVVxRay@@ABUVxBbox@@@Z
?LineBox@VxIntersect@@SAHABVVxRay@@ABUVxBbox@@AAUVxVector@@PAU4@33@Z
?LineFace@VxIntersect@@SAHABVVxRay@@ABUVxVector@@111AAU3@AAM@Z
?LineFace@VxIntersect@@SAHABVVxRay@@ABUVxVector@@111AAU3@AAMAAH4@Z
?LineLineSquareDistance@VxDistance@@SAMABVVxRay@@0PAM1@Z
?LinePlane@VxIntersect@@SAHABVVxRay@@ABVVxPlane@@AAUVxVector@@AAM@Z
?LineRaySquareDistance@VxDistance@@SAMABVVxRay@@0PAM1@Z
?LineSegmentSquareDistance@VxDistance@@SAMABVVxRay@@0PAM1@Z
?Ln@@YA?AUVxQuaternion@@ABU1@@Z
?LnDif@@YA?AUVxQuaternion@@ABU1@0@Z
?Load@VxSharedLibrary@@QAEPAXPAD@Z
?ModifyProcessorFeatures@@YAXKK@Z
?Multiply@VxQuaternion@@QAEXABU1@@Z
?Normalize@VxQuaternion@@QAEXXZ
?Normalize@VxVector@@QAEXXZ
?OBBOBB@VxIntersect@@SAHABVVxOBB@@0@Z
?OpenSection@VxConfig@@QAEXPADW4Mode@1@@Z
?Planes@VxIntersect@@SAHABVVxPlane@@00AAUVxVector@@@Z
?PointInFace@VxIntersect@@SAHABUVxVector@@0000AAH1@Z
?PointLineSquareDistance@VxDistance@@SAMABUVxVector@@ABVVxRay@@PAM@Z
?PointRaySquareDistance@VxDistance@@SAMABUVxVector@@ABVVxRay@@PAM@Z
?PointSegmentSquareDistance@VxDistance@@SAMABUVxVector@@ABVVxRay@@PAM@Z
?QLAlgorithm@VxEigenMatrix@@QAE_NQAM0@Z
?RFind@XString@@QBEGDG@Z
?RGBAFTOCOLOR@@YAKMMMM@Z
?RGBAFTOCOLOR@@YAKPBUVxColor@@@Z
?RayBox@VxIntersect@@SAHABVVxRay@@ABUVxBbox@@@Z
?RayBox@VxIntersect@@SAHABVVxRay@@ABUVxBbox@@AAUVxVector@@PAU4@33@Z
?RayFace@VxIntersect@@SAHABVVxRay@@ABUVxVector@@111AAU3@AAM@Z
?RayFace@VxIntersect@@SAHABVVxRay@@ABUVxVector@@111AAU3@AAMAAH4@Z
?RayFaceCulled@VxIntersect@@SAHABVVxRay@@ABUVxVector@@111AAU3@AAMAAH4@Z
?RayPlane@VxIntersect@@SAHABVVxRay@@ABVVxPlane@@AAUVxVector@@AAM@Z
?RayPlaneCulled@VxIntersect@@SAHABVVxRay@@ABVVxPlane@@AAUVxVector@@AAM@Z
?RayRaySquareDistance@VxDistance@@SAMABVVxRay@@0PAM1@Z
?RaySegmentSquareDistance@VxDistance@@SAMABVVxRay@@0PAM1@Z
?RaySphere@VxIntersect@@SAHABVVxRay@@ABVVxSphere@@PAUVxVector@@2@Z
?ReadStringEntry@VxConfig@@QAEHPAD0@Z
?ReleaseLibrary@VxSharedLibrary@@QAEXXZ
?RemoveEntry@VxConfiguration@@QAEPAVVxConfigurationEntry@@PAD0@Z
?RemoveEntry@VxConfigurationSection@@QAEPAVVxConfigurationEntry@@PAD@Z
?RemoveSection@VxConfiguration@@QAEPAVVxConfigurationSection@@PAD0@Z
?RemoveSection@VxConfigurationSection@@QAEPAV1@PAD@Z
?Replace@XString@@QAEHABVXBaseString@@0@Z
?Replace@XString@@QAEHDD@Z
?Reserve@XString@@QAEXG@Z
?Reset@CKDirectoryParser@@QAEXPAD0H@Z
?Reset@VxTimeProfiler@@QAEXXZ
?Rotate@@YA?BUVxVector@@ABU1@0M@Z
?Rotate@@YA?BUVxVector@@ABVVxMatrix@@ABU1@@Z
?Rotate@@YA?BUVxVector@@PBU1@0M@Z
?Rotate@VxVector@@QAEXABVVxMatrix@@@Z
?SaveToDataFile@VxConfiguration@@QAEHPBD@Z
?SaveToFile@VxConfiguration@@QAEHPBD@Z
?SegmentBox@VxIntersect@@SAHABVVxRay@@ABUVxBbox@@@Z
?SegmentBox@VxIntersect@@SAHABVVxRay@@ABUVxBbox@@AAUVxVector@@PAU4@33@Z
?SegmentFace@VxIntersect@@SAHABVVxRay@@ABUVxVector@@111AAU3@AAM@Z
?SegmentFace@VxIntersect@@SAHABVVxRay@@ABUVxVector@@111AAU3@AAMAAH4@Z
?SegmentFaceCulled@VxIntersect@@SAHABVVxRay@@ABUVxVector@@111AAU3@AAMAAH4@Z
?SegmentPlane@VxIntersect@@SAHABVVxRay@@ABVVxPlane@@AAUVxVector@@AAM@Z
?SegmentPlaneCulled@VxIntersect@@SAHABVVxRay@@ABVVxPlane@@AAUVxVector@@AAM@Z
?SegmentSegmentSquareDistance@VxDistance@@SAMABVVxRay@@0PAM1@Z
?SetName@VxThread@@QAEXPBD@Z
?SetPriority@VxThread@@QAEXI@Z
?SetQuantizationSamplingFactor@@YAXH@Z
?SetValue@VxConfigurationEntry@@QAEXH@Z
?SetValue@VxConfigurationEntry@@QAEXI@Z
?SetValue@VxConfigurationEntry@@QAEXJ@Z
?SetValue@VxConfigurationEntry@@QAEXK@Z
?SetValue@VxConfigurationEntry@@QAEXM@Z
?SetValue@VxConfigurationEntry@@QAEXPBD@Z
?Slerp@@YA?AUVxQuaternion@@MABU1@0@Z
?SphereAABB@VxIntersect@@SAHABVVxSphere@@ABUVxBbox@@@Z
?SphereSphere@VxIntersect@@SAHABVVxSphere@@ABUVxVector@@01PAM2@Z
?Squad@@YA?AUVxQuaternion@@MABU1@000@Z
?Strip@XString@@QAEAAV1@XZ
?Substring@XString@@QBE?AV1@GG@Z
?Tcos@@YAMH@Z
?Terminate@VxThread@@QAEHPAI@Z
?ToEulerAngles@VxQuaternion@@QBEXPAM00@Z
?ToLower@XString@@QAEAAV1@XZ
?ToMatrix@VxQuaternion@@QBEXAAVVxMatrix@@@Z
?ToUpper@XString@@QAEAAV1@XZ
?Transform@VxFrustum@@QAEXABVVxMatrix@@@Z
?Transform@VxRay@@QAEXAAV1@ABVVxMatrix@@@Z
?Transform@VxRect@@QAEXABUVx2DVector@@0@Z
?Transform@VxRect@@QAEXABV1@0@Z
?TransformFrom@VxBbox@@QAEXABU1@ABVVxMatrix@@@Z
?TransformFromHomogeneous@VxRect@@QAEXABV1@@Z
?TransformTo@VxBbox@@QBEXPAUVxVector@@ABVVxMatrix@@@Z
?TransformToHomogeneous@VxRect@@QAEXABV1@@Z
?Tridiagonal@VxEigenMatrix@@QAEXQAM0@Z
?Trim@XString@@QAEAAV1@XZ
?Tsin@@YAMH@Z
?Update@VxFrustum@@QAEXXZ
?Vx3DDecomposeMatrix@@YAXABVVxMatrix@@AAUVxQuaternion@@AAUVxVector@@2@Z
?Vx3DDecomposeMatrixTotal@@YAMABVVxMatrix@@AAUVxQuaternion@@AAUVxVector@@21@Z
?Vx3DDecomposeMatrixTotalPtr@@YAMABVVxMatrix@@PAUVxQuaternion@@PAUVxVector@@21@Z
?Vx3DInterpolateMatrix@@YAXMAAVVxMatrix@@ABV1@1@Z
?Vx3DInterpolateMatrixNoScale@@YAXMAAVVxMatrix@@ABV1@1@Z
?Vx3DInverseMatrix@@YAXAAVVxMatrix@@ABV1@@Z
?Vx3DMatrixDeterminant@@YAMABVVxMatrix@@@Z
?Vx3DMatrixFromEulerAngles@@YAXAAVVxMatrix@@MMM@Z
?Vx3DMatrixFromRotation@@YAXAAVVxMatrix@@ABUVxVector@@M@Z
?Vx3DMatrixFromRotationAndOrigin@@YAXAAVVxMatrix@@ABUVxVector@@1M@Z
?Vx3DMatrixIdentity@@YAXAAVVxMatrix@@@Z
?Vx3DMatrixToEulerAngles@@YAXABVVxMatrix@@PAM11@Z
?Vx3DMultiplyMatrix4@@YAXAAVVxMatrix@@ABV1@1@Z
?Vx3DMultiplyMatrix@@YAXAAVVxMatrix@@ABV1@1@Z
?Vx3DMultiplyMatrixVector4@@YAXPAVVxVector4@@ABVVxMatrix@@PBUVxVector@@@Z
?Vx3DMultiplyMatrixVector4@@YAXPAVVxVector4@@ABVVxMatrix@@PBV1@@Z
?Vx3DMultiplyMatrixVector4Strided@@YAXPAUVxStridedData@@0ABVVxMatrix@@H@Z
?Vx3DMultiplyMatrixVector@@YAXPAUVxVector@@ABVVxMatrix@@PBU1@@Z
?Vx3DMultiplyMatrixVectorMany@@YAXPAUVxVector@@ABVVxMatrix@@PBU1@HH@Z
?Vx3DMultiplyMatrixVectorStrided@@YAXPAUVxStridedData@@0ABVVxMatrix@@H@Z
?Vx3DQuaternionConjugate@@YA?AUVxQuaternion@@ABU1@@Z
?Vx3DQuaternionDivide@@YA?AUVxQuaternion@@ABU1@0@Z
?Vx3DQuaternionFromMatrix@@YA?AUVxQuaternion@@ABVVxMatrix@@@Z
?Vx3DQuaternionMultiply@@YA?AUVxQuaternion@@ABU1@0@Z
?Vx3DQuaternionSnuggle@@YA?AUVxQuaternion@@PAU1@PAUVxVector@@@Z
?Vx3DRotateVector@@YAXPAUVxVector@@ABVVxMatrix@@PBU1@@Z
?Vx3DRotateVectorMany@@YAXPAUVxVector@@ABVVxMatrix@@PBU1@HH@Z
?Vx3DRotateVectorStrided@@YAXPAUVxStridedData@@0ABVVxMatrix@@H@Z
?Vx3DTransposeMatrix@@YAXAAVVxMatrix@@ABV1@@Z
?VxAddLibrarySearchPath@@YAXPAD@Z
?VxBppToMask@@YAXAAUVxImageDescEx@@@Z
?VxClientToScreen@@YAHPAXPAUCKPOINT@@@Z
?VxComputeBestFitBBox@@YAHPBEKHAAVVxMatrix@@M@Z
?VxConvertBitmap@@YAPAEPAXAAUVxImageDescEx@@@Z
?VxConvertBitmapTo24@@YAPAXPAX@Z
?VxConvertToBumpMap@@YAHABUVxImageDescEx@@@Z
?VxConvertToNormalMap@@YAHABUVxImageDescEx@@K@Z
?VxCopyBitmap@@YAHPAXABUVxImageDescEx@@@Z
?VxCopyStructure@@YAHHPAXKK0K@Z
?VxCreateBitmap@@YAPAXABUVxImageDescEx@@@Z
?VxCreateFileTree@@YAHPAD@Z
?VxCreateFont@@YAPAXPADHHHH@Z
?VxDeleteAligned@@YAXPAX@Z
?VxDeleteBitmap@@YAXPAX@Z
?VxDeleteDirectory@@YAHPAD@Z
?VxDeleteFont@@YAXPAX@Z
?VxDoAlphaBlit@@YAXABUVxImageDescEx@@E@Z
?VxDoAlphaBlit@@YAXABUVxImageDescEx@@PAE@Z
?VxDoBlit@@YAXABUVxImageDescEx@@0@Z
?VxDoBlitUpsideDown@@YAXABUVxImageDescEx@@0@Z
?VxDrawBitmapText@@YAHPAX0PADPAUCKRECT@@KKK@Z
?VxEscapeURL@@YAKPADAAVXString@@@Z
?VxFillStructure@@YAHHPAXKK0@Z
?VxGenerateMipMap@@YAXABUVxImageDescEx@@PAE@Z
?VxGetBitCounts@@YAXABUVxImageDescEx@@AAK111@Z
?VxGetBitShifts@@YAXABUVxImageDescEx@@AAK111@Z
?VxGetClientRect@@YAHPAXPAUCKRECT@@@Z
?VxGetCurrentDirectory@@YAHPAD@Z
?VxGetEnvironmentVariable@@YAHPADAAVXString@@@Z
?VxGetFPUControlWord@@YAGXZ
?VxGetFontInfo@@YAHPAXAAUVXFONTINFO@@@Z
?VxGetModuleFileName@@YAKPAXPADK@Z
?VxGetModuleHandle@@YAPAXPBD@Z
?VxGetOs@@YA?AW4VX_OSINFO@@XZ
?VxGetParent@@YAPAXPAX@Z
?VxGetTempPath@@YA?AVXString@@XZ
?VxGetWindowRect@@YAHPAXPAUCKRECT@@@Z
?VxImageDesc2PixelFormat@@YA?AW4VX_PIXELFORMAT@@ABUVxImageDescEx@@@Z
?VxIndexedCopy@@YAHABUVxStridedData@@0KPAHH@Z
?VxMakeDirectory@@YAHPAD@Z
?VxMakePath@@YAHPAD00@Z
?VxMessageBox@@YAHPAXPAD1K@Z
?VxMoveWindow@@YAHPAXHHHHH@Z
?VxNewAligned@@YAPAXHH@Z
?VxPixelFormat2ImageDesc@@YAXW4VX_PIXELFORMAT@@AAUVxImageDescEx@@@Z
?VxPixelFormat2String@@YAPBDW4VX_PIXELFORMAT@@@Z
?VxProjectBoxZExtents@@YAXABVVxMatrix@@ABUVxBbox@@AAM2@Z
?VxPtInRect@@YAHPAUCKRECT@@PAUCKPOINT@@@Z
?VxRemoveDirectory@@YAHPAD@Z
?VxResizeImage32@@YAXABUVxImageDescEx@@0@Z
?VxScanCodeToAscii@@YADKQAE@Z
?VxScanCodeToName@@YAHKPAD@Z
?VxScreenToClient@@YAHPAXPAUCKPOINT@@@Z
?VxSetBaseFPUControlWord@@YAXXZ
?VxSetCurrentDirectory@@YAHPAD@Z
?VxSetCursor@@YAHW4VXCURSOR_POINTER@@@Z
?VxSetEnvironmentVariable@@YAHPAD0@Z
?VxSetFPUControlWord@@YAXG@Z
?VxSetParent@@YAPAXPAX0@Z
?VxShowCursor@@YAHH@Z
?VxTestDiskSpace@@YAHPBDK@Z
?VxTransformBox2D@@YAHABVVxMatrix@@ABUVxBbox@@PAVVxRect@@2AAW4VXCLIP_FLAGS@@3@Z
?VxURLDownloadToCacheFile@@YAKPAD0H@Z
?VxUnEscapeUrl@@YAXAAVXString@@@Z
?VxWindowFromPoint@@YAPAXUCKPOINT@@@Z
?Wait@VxThread@@QAEHPAII@Z
?WriteStringEntry@VxConfig@@QAEXPBD0@Z
?axis0@VxVector@@SAABU1@XZ
?axis1@VxVector@@SAABU1@XZ
?axisX@VxVector@@SAABU1@XZ
?axisY@VxVector@@SAABU1@XZ
?axisZ@VxVector@@SAABU1@XZ
?m_dumpMemoryReport@@YAXPBD_N@Z
?m_setOwner@@YAXPBDI0@Z
?mydelete@@YAXPAX@Z
?mydeletearray@@YAXPAX@Z
?mynew@@YAPAXI@Z
?mynewarray@@YAPAXI@Z
?mynewr@@YAPAXIPBDH@Z
?mynewrarray@@YAPAXIPBDH@Z
?radToAngle@@YAHM@Z
